
./output/uart01_uart02_interrupt.shakti:     file format elf64-littleriscv


Disassembly of section .text.init:

0000000080000000 <_start>:
    80000000:	00001297          	auipc	t0,0x1
    80000004:	2f028293          	addi	t0,t0,752 # 800012f0 <trap_entry>
    80000008:	30529073          	csrw	mtvec,t0
    8000000c:	42ad                	li	t0,11
    8000000e:	3002b073          	csrc	mstatus,t0
    80000012:	6285                	lui	t0,0x1
    80000014:	8882829b          	addiw	t0,t0,-1912
    80000018:	3042b073          	csrc	mie,t0
    8000001c:	4081                	li	ra,0
    8000001e:	4101                	li	sp,0
    80000020:	4181                	li	gp,0
    80000022:	4201                	li	tp,0
    80000024:	4281                	li	t0,0
    80000026:	4301                	li	t1,0
    80000028:	4381                	li	t2,0
    8000002a:	4401                	li	s0,0
    8000002c:	4481                	li	s1,0
    8000002e:	4501                	li	a0,0
    80000030:	4581                	li	a1,0
    80000032:	4601                	li	a2,0
    80000034:	4681                	li	a3,0
    80000036:	4701                	li	a4,0
    80000038:	4781                	li	a5,0
    8000003a:	4801                	li	a6,0
    8000003c:	4881                	li	a7,0
    8000003e:	4901                	li	s2,0
    80000040:	4981                	li	s3,0
    80000042:	4a01                	li	s4,0
    80000044:	4a81                	li	s5,0
    80000046:	4b01                	li	s6,0
    80000048:	4b81                	li	s7,0
    8000004a:	4c01                	li	s8,0
    8000004c:	4c81                	li	s9,0
    8000004e:	4d01                	li	s10,0
    80000050:	4d81                	li	s11,0
    80000052:	4e01                	li	t3,0
    80000054:	4e81                	li	t4,0
    80000056:	4f01                	li	t5,0
    80000058:	4f81                	li	t6,0
    8000005a:	00007197          	auipc	gp,0x7
    8000005e:	91e18193          	addi	gp,gp,-1762 # 80006978 <__global_pointer$>

0000000080000062 <init_bss>:
    80000062:	8a818513          	addi	a0,gp,-1880 # 80006220 <u0_rcv_char>
    80000066:	ddc18593          	addi	a1,gp,-548 # 80006754 <isr_table+0xf4>
    8000006a:	4601                	li	a2,0
    8000006c:	c110                	sw	a2,0(a0)
    8000006e:	00b57463          	bgeu	a0,a1,80000076 <init_sbss>
    80000072:	0511                	addi	a0,a0,4
    80000074:	bfe5                	j	8000006c <init_bss+0xa>

0000000080000076 <init_sbss>:
    80000076:	83018513          	addi	a0,gp,-2000 # 800061a8 <uart0_prev_rcv_isr_count_flag>
    8000007a:	86018593          	addi	a1,gp,-1952 # 800061d8 <uart2_rcv_isr_count>
    8000007e:	4601                	li	a2,0
    80000080:	c110                	sw	a2,0(a0)
    80000082:	00b57463          	bgeu	a0,a1,8000008a <init_sbss+0x14>
    80000086:	0511                	addi	a0,a0,4
    80000088:	bfe5                	j	80000080 <init_sbss+0xa>
    8000008a:	08000117          	auipc	sp,0x8000
    8000008e:	b7610113          	addi	sp,sp,-1162 # 87fffc00 <__stack_pointer$>
    80000092:	e1f18213          	addi	tp,gp,-481 # 80006797 <__bss_end+0x3f>
    80000096:	fc027213          	andi	tp,tp,-64
    8000009a:	0b60306f          	j	80003150 <init>
    8000009e:	a001                	j	8000009e <init_sbss+0x28>

Disassembly of section .text:

00000000800000a0 <init_variables>:
    800000a0:	1141                	addi	sp,sp,-16
    800000a2:	e406                	sd	ra,8(sp)
    800000a4:	e022                	sd	s0,0(sp)
    800000a6:	0800                	addi	s0,sp,16
    800000a8:	84818793          	addi	a5,gp,-1976 # 800061c0 <uart0_complete>
    800000ac:	00078023          	sb	zero,0(a5)
    800000b0:	84918793          	addi	a5,gp,-1975 # 800061c1 <uart1_complete>
    800000b4:	00078023          	sb	zero,0(a5)
    800000b8:	84a18793          	addi	a5,gp,-1974 # 800061c2 <uart2_complete>
    800000bc:	00078023          	sb	zero,0(a5)
    800000c0:	84c18793          	addi	a5,gp,-1972 # 800061c4 <uart0_tx_isr_count>
    800000c4:	0007a023          	sw	zero,0(a5)
    800000c8:	85018793          	addi	a5,gp,-1968 # 800061c8 <uart0_rcv_isr_count>
    800000cc:	0007a023          	sw	zero,0(a5)
    800000d0:	85418793          	addi	a5,gp,-1964 # 800061cc <uart1_tx_isr_count>
    800000d4:	0007a023          	sw	zero,0(a5)
    800000d8:	85818793          	addi	a5,gp,-1960 # 800061d0 <uart1_rcv_isr_count>
    800000dc:	0007a023          	sw	zero,0(a5)
    800000e0:	85c18793          	addi	a5,gp,-1956 # 800061d4 <uart2_tx_isr_count>
    800000e4:	0007a023          	sw	zero,0(a5)
    800000e8:	86018793          	addi	a5,gp,-1952 # 800061d8 <uart2_rcv_isr_count>
    800000ec:	0007a023          	sw	zero,0(a5)
    800000f0:	06400613          	li	a2,100
    800000f4:	4581                	li	a1,0
    800000f6:	8a818513          	addi	a0,gp,-1880 # 80006220 <u0_rcv_char>
    800000fa:	512040ef          	jal	ra,8000460c <memset>
    800000fe:	06400613          	li	a2,100
    80000102:	4581                	li	a1,0
    80000104:	91018513          	addi	a0,gp,-1776 # 80006288 <u1_rcv_char>
    80000108:	504040ef          	jal	ra,8000460c <memset>
    8000010c:	06400613          	li	a2,100
    80000110:	4581                	li	a1,0
    80000112:	97818513          	addi	a0,gp,-1672 # 800062f0 <u2_rcv_char>
    80000116:	4f6040ef          	jal	ra,8000460c <memset>
    8000011a:	83018793          	addi	a5,gp,-2000 # 800061a8 <uart0_prev_rcv_isr_count_flag>
    8000011e:	0007a023          	sw	zero,0(a5)
    80000122:	83418793          	addi	a5,gp,-1996 # 800061ac <uart1_prev_rcv_isr_count_flag>
    80000126:	0007a023          	sw	zero,0(a5)
    8000012a:	83818793          	addi	a5,gp,-1992 # 800061b0 <uart2_prev_rcv_isr_count_flag>
    8000012e:	0007a023          	sw	zero,0(a5)
    80000132:	83c18793          	addi	a5,gp,-1988 # 800061b4 <uart0_prev_tx_isr_count_flag>
    80000136:	0007a023          	sw	zero,0(a5)
    8000013a:	84018793          	addi	a5,gp,-1984 # 800061b8 <uart1_prev_tx_isr_count_flag>
    8000013e:	0007a023          	sw	zero,0(a5)
    80000142:	84418793          	addi	a5,gp,-1980 # 800061bc <uart2_prev_tx_isr_count_flag>
    80000146:	0007a023          	sw	zero,0(a5)
    8000014a:	0001                	nop
    8000014c:	60a2                	ld	ra,8(sp)
    8000014e:	6402                	ld	s0,0(sp)
    80000150:	0141                	addi	sp,sp,16
    80000152:	8082                	ret

0000000080000154 <free_uart_buffers>:
    80000154:	1141                	addi	sp,sp,-16
    80000156:	e406                	sd	ra,8(sp)
    80000158:	e022                	sd	s0,0(sp)
    8000015a:	0800                	addi	s0,sp,16
    8000015c:	ae018793          	addi	a5,gp,-1312 # 80006458 <uart_instance>
    80000160:	639c                	ld	a5,0(a5)
    80000162:	853e                	mv	a0,a5
    80000164:	1b4020ef          	jal	ra,80002318 <flush_uart>
    80000168:	ae018793          	addi	a5,gp,-1312 # 80006458 <uart_instance>
    8000016c:	679c                	ld	a5,8(a5)
    8000016e:	853e                	mv	a0,a5
    80000170:	1a8020ef          	jal	ra,80002318 <flush_uart>
    80000174:	ae018793          	addi	a5,gp,-1312 # 80006458 <uart_instance>
    80000178:	6b9c                	ld	a5,16(a5)
    8000017a:	853e                	mv	a0,a5
    8000017c:	19c020ef          	jal	ra,80002318 <flush_uart>
    80000180:	0001                	nop
    80000182:	60a2                	ld	ra,8(sp)
    80000184:	6402                	ld	s0,0(sp)
    80000186:	0141                	addi	sp,sp,16
    80000188:	8082                	ret

000000008000018a <str_length>:
    8000018a:	7179                	addi	sp,sp,-48
    8000018c:	f422                	sd	s0,40(sp)
    8000018e:	1800                	addi	s0,sp,48
    80000190:	fca43c23          	sd	a0,-40(s0)
    80000194:	fe042623          	sw	zero,-20(s0)
    80000198:	a819                	j	800001ae <str_length+0x24>
    8000019a:	fec42783          	lw	a5,-20(s0)
    8000019e:	2785                	addiw	a5,a5,1
    800001a0:	fef42623          	sw	a5,-20(s0)
    800001a4:	fd843783          	ld	a5,-40(s0)
    800001a8:	0785                	addi	a5,a5,1
    800001aa:	fcf43c23          	sd	a5,-40(s0)
    800001ae:	fd843783          	ld	a5,-40(s0)
    800001b2:	0007c783          	lbu	a5,0(a5)
    800001b6:	f3f5                	bnez	a5,8000019a <str_length+0x10>
    800001b8:	fec42783          	lw	a5,-20(s0)
    800001bc:	853e                	mv	a0,a5
    800001be:	7422                	ld	s0,40(sp)
    800001c0:	6145                	addi	sp,sp,48
    800001c2:	8082                	ret

00000000800001c4 <int_to_str>:
    800001c4:	7179                	addi	sp,sp,-48
    800001c6:	f406                	sd	ra,40(sp)
    800001c8:	f022                	sd	s0,32(sp)
    800001ca:	1800                	addi	s0,sp,48
    800001cc:	87aa                	mv	a5,a0
    800001ce:	fcb43823          	sd	a1,-48(s0)
    800001d2:	fcf42e23          	sw	a5,-36(s0)
    800001d6:	fe042623          	sw	zero,-20(s0)
    800001da:	a081                	j	8000021a <int_to_str+0x56>
    800001dc:	fdc42703          	lw	a4,-36(s0)
    800001e0:	47a9                	li	a5,10
    800001e2:	02f767bb          	remw	a5,a4,a5
    800001e6:	2781                	sext.w	a5,a5
    800001e8:	0ff7f713          	andi	a4,a5,255
    800001ec:	fec42783          	lw	a5,-20(s0)
    800001f0:	fd043683          	ld	a3,-48(s0)
    800001f4:	97b6                	add	a5,a5,a3
    800001f6:	0307071b          	addiw	a4,a4,48
    800001fa:	0ff77713          	andi	a4,a4,255
    800001fe:	00e78023          	sb	a4,0(a5)
    80000202:	fdc42703          	lw	a4,-36(s0)
    80000206:	47a9                	li	a5,10
    80000208:	02f747bb          	divw	a5,a4,a5
    8000020c:	fcf42e23          	sw	a5,-36(s0)
    80000210:	fec42783          	lw	a5,-20(s0)
    80000214:	2785                	addiw	a5,a5,1
    80000216:	fef42623          	sw	a5,-20(s0)
    8000021a:	fdc42783          	lw	a5,-36(s0)
    8000021e:	2781                	sext.w	a5,a5
    80000220:	faf04ee3          	bgtz	a5,800001dc <int_to_str+0x18>
    80000224:	fec42783          	lw	a5,-20(s0)
    80000228:	fd043703          	ld	a4,-48(s0)
    8000022c:	97ba                	add	a5,a5,a4
    8000022e:	00078023          	sb	zero,0(a5)
    80000232:	fd043503          	ld	a0,-48(s0)
    80000236:	f55ff0ef          	jal	ra,8000018a <str_length>
    8000023a:	87aa                	mv	a5,a0
    8000023c:	37fd                	addiw	a5,a5,-1
    8000023e:	fef42423          	sw	a5,-24(s0)
    80000242:	fe842783          	lw	a5,-24(s0)
    80000246:	2785                	addiw	a5,a5,1
    80000248:	fef42223          	sw	a5,-28(s0)
    8000024c:	fe042623          	sw	zero,-20(s0)
    80000250:	a899                	j	800002a6 <int_to_str+0xe2>
    80000252:	fec42783          	lw	a5,-20(s0)
    80000256:	fd043703          	ld	a4,-48(s0)
    8000025a:	97ba                	add	a5,a5,a4
    8000025c:	0007c783          	lbu	a5,0(a5)
    80000260:	fef401a3          	sb	a5,-29(s0)
    80000264:	fe842783          	lw	a5,-24(s0)
    80000268:	fd043703          	ld	a4,-48(s0)
    8000026c:	973e                	add	a4,a4,a5
    8000026e:	fec42783          	lw	a5,-20(s0)
    80000272:	fd043683          	ld	a3,-48(s0)
    80000276:	97b6                	add	a5,a5,a3
    80000278:	00074703          	lbu	a4,0(a4)
    8000027c:	00e78023          	sb	a4,0(a5)
    80000280:	fe842783          	lw	a5,-24(s0)
    80000284:	fd043703          	ld	a4,-48(s0)
    80000288:	97ba                	add	a5,a5,a4
    8000028a:	fe344703          	lbu	a4,-29(s0)
    8000028e:	00e78023          	sb	a4,0(a5)
    80000292:	fec42783          	lw	a5,-20(s0)
    80000296:	2785                	addiw	a5,a5,1
    80000298:	fef42623          	sw	a5,-20(s0)
    8000029c:	fe842783          	lw	a5,-24(s0)
    800002a0:	37fd                	addiw	a5,a5,-1
    800002a2:	fef42423          	sw	a5,-24(s0)
    800002a6:	fec42703          	lw	a4,-20(s0)
    800002aa:	fe842783          	lw	a5,-24(s0)
    800002ae:	2701                	sext.w	a4,a4
    800002b0:	2781                	sext.w	a5,a5
    800002b2:	faf740e3          	blt	a4,a5,80000252 <int_to_str+0x8e>
    800002b6:	fe442783          	lw	a5,-28(s0)
    800002ba:	853e                	mv	a0,a5
    800002bc:	70a2                	ld	ra,40(sp)
    800002be:	7402                	ld	s0,32(sp)
    800002c0:	6145                	addi	sp,sp,48
    800002c2:	8082                	ret

00000000800002c4 <write_cmd>:
    800002c4:	1101                	addi	sp,sp,-32
    800002c6:	ec06                	sd	ra,24(sp)
    800002c8:	e822                	sd	s0,16(sp)
    800002ca:	1000                	addi	s0,sp,32
    800002cc:	fea43423          	sd	a0,-24(s0)
    800002d0:	feb43023          	sd	a1,-32(s0)
    800002d4:	a839                	j	800002f2 <write_cmd+0x2e>
    800002d6:	fe043783          	ld	a5,-32(s0)
    800002da:	0007c783          	lbu	a5,0(a5)
    800002de:	85be                	mv	a1,a5
    800002e0:	fe843503          	ld	a0,-24(s0)
    800002e4:	6ad010ef          	jal	ra,80002190 <write_uart_character>
    800002e8:	fe043783          	ld	a5,-32(s0)
    800002ec:	0785                	addi	a5,a5,1
    800002ee:	fef43023          	sd	a5,-32(s0)
    800002f2:	fe043783          	ld	a5,-32(s0)
    800002f6:	0007c783          	lbu	a5,0(a5)
    800002fa:	fff1                	bnez	a5,800002d6 <write_cmd+0x12>
    800002fc:	45b5                	li	a1,13
    800002fe:	fe843503          	ld	a0,-24(s0)
    80000302:	68f010ef          	jal	ra,80002190 <write_uart_character>
    80000306:	0001                	nop
    80000308:	853e                	mv	a0,a5
    8000030a:	60e2                	ld	ra,24(sp)
    8000030c:	6442                	ld	s0,16(sp)
    8000030e:	6105                	addi	sp,sp,32
    80000310:	8082                	ret

0000000080000312 <cmp_str>:
    80000312:	1101                	addi	sp,sp,-32
    80000314:	ec22                	sd	s0,24(sp)
    80000316:	1000                	addi	s0,sp,32
    80000318:	fea43423          	sd	a0,-24(s0)
    8000031c:	feb43023          	sd	a1,-32(s0)
    80000320:	a805                	j	80000350 <cmp_str+0x3e>
    80000322:	fe843783          	ld	a5,-24(s0)
    80000326:	0007c703          	lbu	a4,0(a5)
    8000032a:	fe043783          	ld	a5,-32(s0)
    8000032e:	0007c783          	lbu	a5,0(a5)
    80000332:	00f71d63          	bne	a4,a5,8000034c <cmp_str+0x3a>
    80000336:	fe843783          	ld	a5,-24(s0)
    8000033a:	0785                	addi	a5,a5,1
    8000033c:	fef43423          	sd	a5,-24(s0)
    80000340:	fe043783          	ld	a5,-32(s0)
    80000344:	0785                	addi	a5,a5,1
    80000346:	fef43023          	sd	a5,-32(s0)
    8000034a:	a019                	j	80000350 <cmp_str+0x3e>
    8000034c:	4781                	li	a5,0
    8000034e:	a821                	j	80000366 <cmp_str+0x54>
    80000350:	fe843783          	ld	a5,-24(s0)
    80000354:	0007c783          	lbu	a5,0(a5)
    80000358:	c791                	beqz	a5,80000364 <cmp_str+0x52>
    8000035a:	fe043783          	ld	a5,-32(s0)
    8000035e:	0007c783          	lbu	a5,0(a5)
    80000362:	f3e1                	bnez	a5,80000322 <cmp_str+0x10>
    80000364:	4785                	li	a5,1
    80000366:	853e                	mv	a0,a5
    80000368:	6462                	ld	s0,24(sp)
    8000036a:	6105                	addi	sp,sp,32
    8000036c:	8082                	ret

000000008000036e <read_output>:
    8000036e:	1101                	addi	sp,sp,-32
    80000370:	ec06                	sd	ra,24(sp)
    80000372:	e822                	sd	s0,16(sp)
    80000374:	1000                	addi	s0,sp,32
    80000376:	fea43423          	sd	a0,-24(s0)
    8000037a:	feb43023          	sd	a1,-32(s0)
    8000037e:	4505                	li	a0,1
    80000380:	040010ef          	jal	ra,800013c0 <delay>
    80000384:	86018793          	addi	a5,gp,-1952 # 800061d8 <uart2_rcv_isr_count>
    80000388:	439c                	lw	a5,0(a5)
    8000038a:	2785                	addiw	a5,a5,1
    8000038c:	0007871b          	sext.w	a4,a5
    80000390:	86018793          	addi	a5,gp,-1952 # 800061d8 <uart2_rcv_isr_count>
    80000394:	c398                	sw	a4,0(a5)
    80000396:	86018793          	addi	a5,gp,-1952 # 800061d8 <uart2_rcv_isr_count>
    8000039a:	439c                	lw	a5,0(a5)
    8000039c:	97818713          	addi	a4,gp,-1672 # 800062f0 <u2_rcv_char>
    800003a0:	1782                	slli	a5,a5,0x20
    800003a2:	9381                	srli	a5,a5,0x20
    800003a4:	97ba                	add	a5,a5,a4
    800003a6:	00078023          	sb	zero,0(a5)
    800003aa:	fe043583          	ld	a1,-32(s0)
    800003ae:	97818513          	addi	a0,gp,-1672 # 800062f0 <u2_rcv_char>
    800003b2:	736040ef          	jal	ra,80004ae8 <strstr>
    800003b6:	87aa                	mv	a5,a0
    800003b8:	ef91                	bnez	a5,800003d4 <read_output+0x66>
    800003ba:	86018793          	addi	a5,gp,-1952 # 800061d8 <uart2_rcv_isr_count>
    800003be:	0007a023          	sw	zero,0(a5)
    800003c2:	06400613          	li	a2,100
    800003c6:	4581                	li	a1,0
    800003c8:	97818513          	addi	a0,gp,-1672 # 800062f0 <u2_rcv_char>
    800003cc:	240040ef          	jal	ra,8000460c <memset>
    800003d0:	4781                	li	a5,0
    800003d2:	a829                	j	800003ec <read_output+0x7e>
    800003d4:	86018793          	addi	a5,gp,-1952 # 800061d8 <uart2_rcv_isr_count>
    800003d8:	0007a023          	sw	zero,0(a5)
    800003dc:	06400613          	li	a2,100
    800003e0:	4581                	li	a1,0
    800003e2:	97818513          	addi	a0,gp,-1672 # 800062f0 <u2_rcv_char>
    800003e6:	226040ef          	jal	ra,8000460c <memset>
    800003ea:	4785                	li	a5,1
    800003ec:	853e                	mv	a0,a5
    800003ee:	60e2                	ld	ra,24(sp)
    800003f0:	6442                	ld	s0,16(sp)
    800003f2:	6105                	addi	sp,sp,32
    800003f4:	8082                	ret

00000000800003f6 <setup>:
    800003f6:	1101                	addi	sp,sp,-32
    800003f8:	ec06                	sd	ra,24(sp)
    800003fa:	e822                	sd	s0,16(sp)
    800003fc:	1000                	addi	s0,sp,32
    800003fe:	fea43423          	sd	a0,-24(s0)
    80000402:	00005597          	auipc	a1,0x5
    80000406:	a0658593          	addi	a1,a1,-1530 # 80004e08 <__rodata_start>
    8000040a:	fe843503          	ld	a0,-24(s0)
    8000040e:	eb7ff0ef          	jal	ra,800002c4 <write_cmd>
    80000412:	00005597          	auipc	a1,0x5
    80000416:	a0658593          	addi	a1,a1,-1530 # 80004e18 <__rodata_start+0x10>
    8000041a:	fe843503          	ld	a0,-24(s0)
    8000041e:	f51ff0ef          	jal	ra,8000036e <read_output>
    80000422:	87aa                	mv	a5,a0
    80000424:	cb95                	beqz	a5,80000458 <setup+0x62>
    80000426:	00005517          	auipc	a0,0x5
    8000042a:	9fa50513          	addi	a0,a0,-1542 # 80004e20 <__rodata_start+0x18>
    8000042e:	588010ef          	jal	ra,800019b6 <log_info>
    80000432:	00005597          	auipc	a1,0x5
    80000436:	a3658593          	addi	a1,a1,-1482 # 80004e68 <__rodata_start+0x60>
    8000043a:	fe843503          	ld	a0,-24(s0)
    8000043e:	e87ff0ef          	jal	ra,800002c4 <write_cmd>
    80000442:	00005597          	auipc	a1,0x5
    80000446:	9d658593          	addi	a1,a1,-1578 # 80004e18 <__rodata_start+0x10>
    8000044a:	fe843503          	ld	a0,-24(s0)
    8000044e:	f21ff0ef          	jal	ra,8000036e <read_output>
    80000452:	87aa                	mv	a5,a0
    80000454:	c3b9                	beqz	a5,8000049a <setup+0xa4>
    80000456:	a809                	j	80000468 <setup+0x72>
    80000458:	00005517          	auipc	a0,0x5
    8000045c:	9f050513          	addi	a0,a0,-1552 # 80004e48 <__rodata_start+0x40>
    80000460:	556010ef          	jal	ra,800019b6 <log_info>
    80000464:	4781                	li	a5,0
    80000466:	a2ad                	j	800005d0 <setup+0x1da>
    80000468:	00005517          	auipc	a0,0x5
    8000046c:	a0850513          	addi	a0,a0,-1528 # 80004e70 <__rodata_start+0x68>
    80000470:	546010ef          	jal	ra,800019b6 <log_info>
    80000474:	00005597          	auipc	a1,0x5
    80000478:	a2c58593          	addi	a1,a1,-1492 # 80004ea0 <__rodata_start+0x98>
    8000047c:	fe843503          	ld	a0,-24(s0)
    80000480:	e45ff0ef          	jal	ra,800002c4 <write_cmd>
    80000484:	00005597          	auipc	a1,0x5
    80000488:	99458593          	addi	a1,a1,-1644 # 80004e18 <__rodata_start+0x10>
    8000048c:	fe843503          	ld	a0,-24(s0)
    80000490:	edfff0ef          	jal	ra,8000036e <read_output>
    80000494:	87aa                	mv	a5,a0
    80000496:	c3b9                	beqz	a5,800004dc <setup+0xe6>
    80000498:	a809                	j	800004aa <setup+0xb4>
    8000049a:	00005517          	auipc	a0,0x5
    8000049e:	9ee50513          	addi	a0,a0,-1554 # 80004e88 <__rodata_start+0x80>
    800004a2:	514010ef          	jal	ra,800019b6 <log_info>
    800004a6:	4781                	li	a5,0
    800004a8:	a225                	j	800005d0 <setup+0x1da>
    800004aa:	00005517          	auipc	a0,0x5
    800004ae:	a0650513          	addi	a0,a0,-1530 # 80004eb0 <__rodata_start+0xa8>
    800004b2:	504010ef          	jal	ra,800019b6 <log_info>
    800004b6:	00005597          	auipc	a1,0x5
    800004ba:	a2a58593          	addi	a1,a1,-1494 # 80004ee0 <__rodata_start+0xd8>
    800004be:	fe843503          	ld	a0,-24(s0)
    800004c2:	e03ff0ef          	jal	ra,800002c4 <write_cmd>
    800004c6:	00005597          	auipc	a1,0x5
    800004ca:	95258593          	addi	a1,a1,-1710 # 80004e18 <__rodata_start+0x10>
    800004ce:	fe843503          	ld	a0,-24(s0)
    800004d2:	e9dff0ef          	jal	ra,8000036e <read_output>
    800004d6:	87aa                	mv	a5,a0
    800004d8:	c3b9                	beqz	a5,8000051e <setup+0x128>
    800004da:	a809                	j	800004ec <setup+0xf6>
    800004dc:	00005517          	auipc	a0,0x5
    800004e0:	9e450513          	addi	a0,a0,-1564 # 80004ec0 <__rodata_start+0xb8>
    800004e4:	4d2010ef          	jal	ra,800019b6 <log_info>
    800004e8:	4781                	li	a5,0
    800004ea:	a0dd                	j	800005d0 <setup+0x1da>
    800004ec:	00005517          	auipc	a0,0x5
    800004f0:	9fc50513          	addi	a0,a0,-1540 # 80004ee8 <__rodata_start+0xe0>
    800004f4:	4c2010ef          	jal	ra,800019b6 <log_info>
    800004f8:	00005597          	auipc	a1,0x5
    800004fc:	a2058593          	addi	a1,a1,-1504 # 80004f18 <__rodata_start+0x110>
    80000500:	fe843503          	ld	a0,-24(s0)
    80000504:	dc1ff0ef          	jal	ra,800002c4 <write_cmd>
    80000508:	00005597          	auipc	a1,0x5
    8000050c:	91058593          	addi	a1,a1,-1776 # 80004e18 <__rodata_start+0x10>
    80000510:	fe843503          	ld	a0,-24(s0)
    80000514:	e5bff0ef          	jal	ra,8000036e <read_output>
    80000518:	87aa                	mv	a5,a0
    8000051a:	c3b9                	beqz	a5,80000560 <setup+0x16a>
    8000051c:	a809                	j	8000052e <setup+0x138>
    8000051e:	00005517          	auipc	a0,0x5
    80000522:	9e250513          	addi	a0,a0,-1566 # 80004f00 <__rodata_start+0xf8>
    80000526:	490010ef          	jal	ra,800019b6 <log_info>
    8000052a:	4781                	li	a5,0
    8000052c:	a055                	j	800005d0 <setup+0x1da>
    8000052e:	00005517          	auipc	a0,0x5
    80000532:	9fa50513          	addi	a0,a0,-1542 # 80004f28 <__rodata_start+0x120>
    80000536:	480010ef          	jal	ra,800019b6 <log_info>
    8000053a:	00005597          	auipc	a1,0x5
    8000053e:	a3658593          	addi	a1,a1,-1482 # 80004f70 <__rodata_start+0x168>
    80000542:	fe843503          	ld	a0,-24(s0)
    80000546:	d7fff0ef          	jal	ra,800002c4 <write_cmd>
    8000054a:	00005597          	auipc	a1,0x5
    8000054e:	8ce58593          	addi	a1,a1,-1842 # 80004e18 <__rodata_start+0x10>
    80000552:	fe843503          	ld	a0,-24(s0)
    80000556:	e19ff0ef          	jal	ra,8000036e <read_output>
    8000055a:	87aa                	mv	a5,a0
    8000055c:	c3b9                	beqz	a5,800005a2 <setup+0x1ac>
    8000055e:	a809                	j	80000570 <setup+0x17a>
    80000560:	00005517          	auipc	a0,0x5
    80000564:	9f050513          	addi	a0,a0,-1552 # 80004f50 <__rodata_start+0x148>
    80000568:	44e010ef          	jal	ra,800019b6 <log_info>
    8000056c:	4781                	li	a5,0
    8000056e:	a08d                	j	800005d0 <setup+0x1da>
    80000570:	00005517          	auipc	a0,0x5
    80000574:	a1050513          	addi	a0,a0,-1520 # 80004f80 <__rodata_start+0x178>
    80000578:	43e010ef          	jal	ra,800019b6 <log_info>
    8000057c:	00005597          	auipc	a1,0x5
    80000580:	a4c58593          	addi	a1,a1,-1460 # 80004fc8 <__rodata_start+0x1c0>
    80000584:	fe843503          	ld	a0,-24(s0)
    80000588:	d3dff0ef          	jal	ra,800002c4 <write_cmd>
    8000058c:	00005597          	auipc	a1,0x5
    80000590:	88c58593          	addi	a1,a1,-1908 # 80004e18 <__rodata_start+0x10>
    80000594:	fe843503          	ld	a0,-24(s0)
    80000598:	dd7ff0ef          	jal	ra,8000036e <read_output>
    8000059c:	87aa                	mv	a5,a0
    8000059e:	c395                	beqz	a5,800005c2 <setup+0x1cc>
    800005a0:	a809                	j	800005b2 <setup+0x1bc>
    800005a2:	00005517          	auipc	a0,0x5
    800005a6:	a0650513          	addi	a0,a0,-1530 # 80004fa8 <__rodata_start+0x1a0>
    800005aa:	40c010ef          	jal	ra,800019b6 <log_info>
    800005ae:	4781                	li	a5,0
    800005b0:	a005                	j	800005d0 <setup+0x1da>
    800005b2:	00005517          	auipc	a0,0x5
    800005b6:	a2650513          	addi	a0,a0,-1498 # 80004fd8 <__rodata_start+0x1d0>
    800005ba:	3fc010ef          	jal	ra,800019b6 <log_info>
    800005be:	4785                	li	a5,1
    800005c0:	a801                	j	800005d0 <setup+0x1da>
    800005c2:	00005517          	auipc	a0,0x5
    800005c6:	a2e50513          	addi	a0,a0,-1490 # 80004ff0 <__rodata_start+0x1e8>
    800005ca:	3ec010ef          	jal	ra,800019b6 <log_info>
    800005ce:	4781                	li	a5,0
    800005d0:	853e                	mv	a0,a5
    800005d2:	60e2                	ld	ra,24(sp)
    800005d4:	6442                	ld	s0,16(sp)
    800005d6:	6105                	addi	sp,sp,32
    800005d8:	8082                	ret

00000000800005da <recall_HTTP_service>:
    800005da:	7179                	addi	sp,sp,-48
    800005dc:	f406                	sd	ra,40(sp)
    800005de:	f022                	sd	s0,32(sp)
    800005e0:	1800                	addi	s0,sp,48
    800005e2:	fca43c23          	sd	a0,-40(s0)
    800005e6:	4795                	li	a5,5
    800005e8:	fef42623          	sw	a5,-20(s0)
    800005ec:	a061                	j	80000674 <recall_HTTP_service+0x9a>
    800005ee:	4551                	li	a0,20
    800005f0:	5d1000ef          	jal	ra,800013c0 <delay>
    800005f4:	00005597          	auipc	a1,0x5
    800005f8:	a1c58593          	addi	a1,a1,-1508 # 80005010 <__rodata_start+0x208>
    800005fc:	fd843503          	ld	a0,-40(s0)
    80000600:	cc5ff0ef          	jal	ra,800002c4 <write_cmd>
    80000604:	00005597          	auipc	a1,0x5
    80000608:	81458593          	addi	a1,a1,-2028 # 80004e18 <__rodata_start+0x10>
    8000060c:	fd843503          	ld	a0,-40(s0)
    80000610:	d5fff0ef          	jal	ra,8000036e <read_output>
    80000614:	87aa                	mv	a5,a0
    80000616:	cb95                	beqz	a5,8000064a <recall_HTTP_service+0x70>
    80000618:	00005517          	auipc	a0,0x5
    8000061c:	a0850513          	addi	a0,a0,-1528 # 80005020 <__rodata_start+0x218>
    80000620:	396010ef          	jal	ra,800019b6 <log_info>
    80000624:	00005597          	auipc	a1,0x5
    80000628:	a3458593          	addi	a1,a1,-1484 # 80005058 <__rodata_start+0x250>
    8000062c:	fd843503          	ld	a0,-40(s0)
    80000630:	c95ff0ef          	jal	ra,800002c4 <write_cmd>
    80000634:	00004597          	auipc	a1,0x4
    80000638:	7e458593          	addi	a1,a1,2020 # 80004e18 <__rodata_start+0x10>
    8000063c:	fd843503          	ld	a0,-40(s0)
    80000640:	d2fff0ef          	jal	ra,8000036e <read_output>
    80000644:	87aa                	mv	a5,a0
    80000646:	c38d                	beqz	a5,80000668 <recall_HTTP_service+0x8e>
    80000648:	a801                	j	80000658 <recall_HTTP_service+0x7e>
    8000064a:	00005517          	auipc	a0,0x5
    8000064e:	9f650513          	addi	a0,a0,-1546 # 80005040 <__rodata_start+0x238>
    80000652:	364010ef          	jal	ra,800019b6 <log_info>
    80000656:	a839                	j	80000674 <recall_HTTP_service+0x9a>
    80000658:	00005517          	auipc	a0,0x5
    8000065c:	a1050513          	addi	a0,a0,-1520 # 80005068 <__rodata_start+0x260>
    80000660:	356010ef          	jal	ra,800019b6 <log_info>
    80000664:	4785                	li	a5,1
    80000666:	a839                	j	80000684 <recall_HTTP_service+0xaa>
    80000668:	00005517          	auipc	a0,0x5
    8000066c:	a1850513          	addi	a0,a0,-1512 # 80005080 <__rodata_start+0x278>
    80000670:	346010ef          	jal	ra,800019b6 <log_info>
    80000674:	fec42783          	lw	a5,-20(s0)
    80000678:	fff7871b          	addiw	a4,a5,-1
    8000067c:	fee42623          	sw	a4,-20(s0)
    80000680:	f7bd                	bnez	a5,800005ee <recall_HTTP_service+0x14>
    80000682:	4781                	li	a5,0
    80000684:	853e                	mv	a0,a5
    80000686:	70a2                	ld	ra,40(sp)
    80000688:	7402                	ld	s0,32(sp)
    8000068a:	6145                	addi	sp,sp,48
    8000068c:	8082                	ret

000000008000068e <SendDataPOST>:
    8000068e:	7149                	addi	sp,sp,-368
    80000690:	f686                	sd	ra,360(sp)
    80000692:	f2a2                	sd	s0,352(sp)
    80000694:	1a80                	addi	s0,sp,368
    80000696:	eaa43423          	sd	a0,-344(s0)
    8000069a:	eab43023          	sd	a1,-352(s0)
    8000069e:	e8c43c23          	sd	a2,-360(s0)
    800006a2:	e8d43823          	sd	a3,-368(s0)
    800006a6:	00005597          	auipc	a1,0x5
    800006aa:	9b258593          	addi	a1,a1,-1614 # 80005058 <__rodata_start+0x250>
    800006ae:	ea843503          	ld	a0,-344(s0)
    800006b2:	c13ff0ef          	jal	ra,800002c4 <write_cmd>
    800006b6:	00004597          	auipc	a1,0x4
    800006ba:	76258593          	addi	a1,a1,1890 # 80004e18 <__rodata_start+0x10>
    800006be:	ea843503          	ld	a0,-344(s0)
    800006c2:	cadff0ef          	jal	ra,8000036e <read_output>
    800006c6:	87aa                	mv	a5,a0
    800006c8:	cb81                	beqz	a5,800006d8 <SendDataPOST+0x4a>
    800006ca:	00005517          	auipc	a0,0x5
    800006ce:	99e50513          	addi	a0,a0,-1634 # 80005068 <__rodata_start+0x260>
    800006d2:	2e4010ef          	jal	ra,800019b6 <log_info>
    800006d6:	a839                	j	800006f4 <SendDataPOST+0x66>
    800006d8:	00005517          	auipc	a0,0x5
    800006dc:	9d050513          	addi	a0,a0,-1584 # 800050a8 <__rodata_start+0x2a0>
    800006e0:	2d6010ef          	jal	ra,800019b6 <log_info>
    800006e4:	ea843503          	ld	a0,-344(s0)
    800006e8:	ef3ff0ef          	jal	ra,800005da <recall_HTTP_service>
    800006ec:	87aa                	mv	a5,a0
    800006ee:	e399                	bnez	a5,800006f4 <SendDataPOST+0x66>
    800006f0:	4781                	li	a5,0
    800006f2:	aeb5                	j	80000a6e <SendDataPOST+0x3e0>
    800006f4:	00005797          	auipc	a5,0x5
    800006f8:	b3478793          	addi	a5,a5,-1228 # 80005228 <__rodata_start+0x420>
    800006fc:	6398                	ld	a4,0(a5)
    800006fe:	f0e43423          	sd	a4,-248(s0)
    80000702:	6798                	ld	a4,8(a5)
    80000704:	f0e43823          	sd	a4,-240(s0)
    80000708:	4b9c                	lw	a5,16(a5)
    8000070a:	f0f42c23          	sw	a5,-232(s0)
    8000070e:	f1c40793          	addi	a5,s0,-228
    80000712:	0b400713          	li	a4,180
    80000716:	863a                	mv	a2,a4
    80000718:	4581                	li	a1,0
    8000071a:	853e                	mv	a0,a5
    8000071c:	6f1030ef          	jal	ra,8000460c <memset>
    80000720:	f0840793          	addi	a5,s0,-248
    80000724:	853e                	mv	a0,a5
    80000726:	a65ff0ef          	jal	ra,8000018a <str_length>
    8000072a:	87aa                	mv	a5,a0
    8000072c:	fef42023          	sw	a5,-32(s0)
    80000730:	ea043503          	ld	a0,-352(s0)
    80000734:	a57ff0ef          	jal	ra,8000018a <str_length>
    80000738:	87aa                	mv	a5,a0
    8000073a:	fcf42e23          	sw	a5,-36(s0)
    8000073e:	fe042783          	lw	a5,-32(s0)
    80000742:	fef42623          	sw	a5,-20(s0)
    80000746:	fe042423          	sw	zero,-24(s0)
    8000074a:	fe042703          	lw	a4,-32(s0)
    8000074e:	fdc42783          	lw	a5,-36(s0)
    80000752:	9fb9                	addw	a5,a5,a4
    80000754:	fcf42c23          	sw	a5,-40(s0)
    80000758:	a805                	j	80000788 <SendDataPOST+0xfa>
    8000075a:	fe842783          	lw	a5,-24(s0)
    8000075e:	0017871b          	addiw	a4,a5,1
    80000762:	fee42423          	sw	a4,-24(s0)
    80000766:	873e                	mv	a4,a5
    80000768:	ea043783          	ld	a5,-352(s0)
    8000076c:	973e                	add	a4,a4,a5
    8000076e:	fec42783          	lw	a5,-20(s0)
    80000772:	0017869b          	addiw	a3,a5,1
    80000776:	fed42623          	sw	a3,-20(s0)
    8000077a:	00074703          	lbu	a4,0(a4)
    8000077e:	ff040693          	addi	a3,s0,-16
    80000782:	97b6                	add	a5,a5,a3
    80000784:	f0e78c23          	sb	a4,-232(a5)
    80000788:	fec42703          	lw	a4,-20(s0)
    8000078c:	fd842783          	lw	a5,-40(s0)
    80000790:	2701                	sext.w	a4,a4
    80000792:	2781                	sext.w	a5,a5
    80000794:	fcf743e3          	blt	a4,a5,8000075a <SendDataPOST+0xcc>
    80000798:	fec42783          	lw	a5,-20(s0)
    8000079c:	0017871b          	addiw	a4,a5,1
    800007a0:	fee42623          	sw	a4,-20(s0)
    800007a4:	ff040713          	addi	a4,s0,-16
    800007a8:	97ba                	add	a5,a5,a4
    800007aa:	02200713          	li	a4,34
    800007ae:	f0e78c23          	sb	a4,-232(a5)
    800007b2:	fec42783          	lw	a5,-20(s0)
    800007b6:	ff040713          	addi	a4,s0,-16
    800007ba:	97ba                	add	a5,a5,a4
    800007bc:	f0078c23          	sb	zero,-232(a5)
    800007c0:	f0840793          	addi	a5,s0,-248
    800007c4:	85be                	mv	a1,a5
    800007c6:	ea843503          	ld	a0,-344(s0)
    800007ca:	afbff0ef          	jal	ra,800002c4 <write_cmd>
    800007ce:	00004597          	auipc	a1,0x4
    800007d2:	64a58593          	addi	a1,a1,1610 # 80004e18 <__rodata_start+0x10>
    800007d6:	ea843503          	ld	a0,-344(s0)
    800007da:	b95ff0ef          	jal	ra,8000036e <read_output>
    800007de:	87aa                	mv	a5,a0
    800007e0:	c3cd                	beqz	a5,80000882 <SendDataPOST+0x1f4>
    800007e2:	f0840793          	addi	a5,s0,-248
    800007e6:	85be                	mv	a1,a5
    800007e8:	00005517          	auipc	a0,0x5
    800007ec:	8e050513          	addi	a0,a0,-1824 # 800050c8 <__rodata_start+0x2c0>
    800007f0:	1c6010ef          	jal	ra,800019b6 <log_info>
    800007f4:	00005797          	auipc	a5,0x5
    800007f8:	afc78793          	addi	a5,a5,-1284 # 800052f0 <__rodata_start+0x4e8>
    800007fc:	6398                	ld	a4,0(a5)
    800007fe:	ece43823          	sd	a4,-304(s0)
    80000802:	4798                	lw	a4,8(a5)
    80000804:	ece42c23          	sw	a4,-296(s0)
    80000808:	00c7c783          	lbu	a5,12(a5)
    8000080c:	ecf40e23          	sb	a5,-292(s0)
    80000810:	edd40793          	addi	a5,s0,-291
    80000814:	02500713          	li	a4,37
    80000818:	863a                	mv	a2,a4
    8000081a:	4581                	li	a1,0
    8000081c:	853e                	mv	a0,a5
    8000081e:	5ef030ef          	jal	ra,8000460c <memset>
    80000822:	ed040793          	addi	a5,s0,-304
    80000826:	853e                	mv	a0,a5
    80000828:	963ff0ef          	jal	ra,8000018a <str_length>
    8000082c:	87aa                	mv	a5,a0
    8000082e:	fef42023          	sw	a5,-32(s0)
    80000832:	e9843503          	ld	a0,-360(s0)
    80000836:	955ff0ef          	jal	ra,8000018a <str_length>
    8000083a:	87aa                	mv	a5,a0
    8000083c:	2785                	addiw	a5,a5,1
    8000083e:	fcf42a23          	sw	a5,-44(s0)
    80000842:	eb040713          	addi	a4,s0,-336
    80000846:	fd442783          	lw	a5,-44(s0)
    8000084a:	85ba                	mv	a1,a4
    8000084c:	853e                	mv	a0,a5
    8000084e:	977ff0ef          	jal	ra,800001c4 <int_to_str>
    80000852:	87aa                	mv	a5,a0
    80000854:	fcf42e23          	sw	a5,-36(s0)
    80000858:	e9043503          	ld	a0,-368(s0)
    8000085c:	92fff0ef          	jal	ra,8000018a <str_length>
    80000860:	87aa                	mv	a5,a0
    80000862:	fcf42823          	sw	a5,-48(s0)
    80000866:	fe042783          	lw	a5,-32(s0)
    8000086a:	fef42623          	sw	a5,-20(s0)
    8000086e:	fe042423          	sw	zero,-24(s0)
    80000872:	fe042703          	lw	a4,-32(s0)
    80000876:	fdc42783          	lw	a5,-36(s0)
    8000087a:	9fb9                	addw	a5,a5,a4
    8000087c:	fcf42c23          	sw	a5,-40(s0)
    80000880:	a83d                	j	800008be <SendDataPOST+0x230>
    80000882:	00005517          	auipc	a0,0x5
    80000886:	85650513          	addi	a0,a0,-1962 # 800050d8 <__rodata_start+0x2d0>
    8000088a:	12c010ef          	jal	ra,800019b6 <log_info>
    8000088e:	4781                	li	a5,0
    80000890:	aaf9                	j	80000a6e <SendDataPOST+0x3e0>
    80000892:	fe842703          	lw	a4,-24(s0)
    80000896:	0017079b          	addiw	a5,a4,1
    8000089a:	fef42423          	sw	a5,-24(s0)
    8000089e:	fec42783          	lw	a5,-20(s0)
    800008a2:	0017869b          	addiw	a3,a5,1
    800008a6:	fed42623          	sw	a3,-20(s0)
    800008aa:	ff040693          	addi	a3,s0,-16
    800008ae:	9736                	add	a4,a4,a3
    800008b0:	ec074703          	lbu	a4,-320(a4)
    800008b4:	ff040693          	addi	a3,s0,-16
    800008b8:	97b6                	add	a5,a5,a3
    800008ba:	eee78023          	sb	a4,-288(a5)
    800008be:	fec42703          	lw	a4,-20(s0)
    800008c2:	fd842783          	lw	a5,-40(s0)
    800008c6:	2701                	sext.w	a4,a4
    800008c8:	2781                	sext.w	a5,a5
    800008ca:	fcf744e3          	blt	a4,a5,80000892 <SendDataPOST+0x204>
    800008ce:	fec42783          	lw	a5,-20(s0)
    800008d2:	0017871b          	addiw	a4,a5,1
    800008d6:	fee42623          	sw	a4,-20(s0)
    800008da:	ff040713          	addi	a4,s0,-16
    800008de:	97ba                	add	a5,a5,a4
    800008e0:	02c00713          	li	a4,44
    800008e4:	eee78023          	sb	a4,-288(a5)
    800008e8:	fe042423          	sw	zero,-24(s0)
    800008ec:	fd842703          	lw	a4,-40(s0)
    800008f0:	fd042783          	lw	a5,-48(s0)
    800008f4:	9fb9                	addw	a5,a5,a4
    800008f6:	fcf42c23          	sw	a5,-40(s0)
    800008fa:	a805                	j	8000092a <SendDataPOST+0x29c>
    800008fc:	fe842783          	lw	a5,-24(s0)
    80000900:	0017871b          	addiw	a4,a5,1
    80000904:	fee42423          	sw	a4,-24(s0)
    80000908:	873e                	mv	a4,a5
    8000090a:	e9043783          	ld	a5,-368(s0)
    8000090e:	973e                	add	a4,a4,a5
    80000910:	fec42783          	lw	a5,-20(s0)
    80000914:	0017869b          	addiw	a3,a5,1
    80000918:	fed42623          	sw	a3,-20(s0)
    8000091c:	00074703          	lbu	a4,0(a4)
    80000920:	ff040693          	addi	a3,s0,-16
    80000924:	97b6                	add	a5,a5,a3
    80000926:	eee78023          	sb	a4,-288(a5)
    8000092a:	fec42703          	lw	a4,-20(s0)
    8000092e:	fd842783          	lw	a5,-40(s0)
    80000932:	2701                	sext.w	a4,a4
    80000934:	2781                	sext.w	a5,a5
    80000936:	fcf743e3          	blt	a4,a5,800008fc <SendDataPOST+0x26e>
    8000093a:	fec42783          	lw	a5,-20(s0)
    8000093e:	ff040713          	addi	a4,s0,-16
    80000942:	97ba                	add	a5,a5,a4
    80000944:	ee078023          	sb	zero,-288(a5)
    80000948:	ed040793          	addi	a5,s0,-304
    8000094c:	85be                	mv	a1,a5
    8000094e:	ea843503          	ld	a0,-344(s0)
    80000952:	973ff0ef          	jal	ra,800002c4 <write_cmd>
    80000956:	00004597          	auipc	a1,0x4
    8000095a:	7a258593          	addi	a1,a1,1954 # 800050f8 <__rodata_start+0x2f0>
    8000095e:	ea843503          	ld	a0,-344(s0)
    80000962:	a0dff0ef          	jal	ra,8000036e <read_output>
    80000966:	87aa                	mv	a5,a0
    80000968:	c3a1                	beqz	a5,800009a8 <SendDataPOST+0x31a>
    8000096a:	e9843583          	ld	a1,-360(s0)
    8000096e:	ea843503          	ld	a0,-344(s0)
    80000972:	953ff0ef          	jal	ra,800002c4 <write_cmd>
    80000976:	00004597          	auipc	a1,0x4
    8000097a:	4a258593          	addi	a1,a1,1186 # 80004e18 <__rodata_start+0x10>
    8000097e:	ea843503          	ld	a0,-344(s0)
    80000982:	9edff0ef          	jal	ra,8000036e <read_output>
    80000986:	87aa                	mv	a5,a0
    80000988:	cb81                	beqz	a5,80000998 <SendDataPOST+0x30a>
    8000098a:	00004517          	auipc	a0,0x4
    8000098e:	77e50513          	addi	a0,a0,1918 # 80005108 <__rodata_start+0x300>
    80000992:	024010ef          	jal	ra,800019b6 <log_info>
    80000996:	a839                	j	800009b4 <SendDataPOST+0x326>
    80000998:	00004517          	auipc	a0,0x4
    8000099c:	78050513          	addi	a0,a0,1920 # 80005118 <__rodata_start+0x310>
    800009a0:	016010ef          	jal	ra,800019b6 <log_info>
    800009a4:	4781                	li	a5,0
    800009a6:	a0e1                	j	80000a6e <SendDataPOST+0x3e0>
    800009a8:	00004517          	auipc	a0,0x4
    800009ac:	78850513          	addi	a0,a0,1928 # 80005130 <__rodata_start+0x328>
    800009b0:	006010ef          	jal	ra,800019b6 <log_info>
    800009b4:	fe042223          	sw	zero,-28(s0)
    800009b8:	00004597          	auipc	a1,0x4
    800009bc:	79858593          	addi	a1,a1,1944 # 80005150 <__rodata_start+0x348>
    800009c0:	ea843503          	ld	a0,-344(s0)
    800009c4:	901ff0ef          	jal	ra,800002c4 <write_cmd>
    800009c8:	00004597          	auipc	a1,0x4
    800009cc:	45058593          	addi	a1,a1,1104 # 80004e18 <__rodata_start+0x10>
    800009d0:	ea843503          	ld	a0,-344(s0)
    800009d4:	99bff0ef          	jal	ra,8000036e <read_output>
    800009d8:	87aa                	mv	a5,a0
    800009da:	c3a9                	beqz	a5,80000a1c <SendDataPOST+0x38e>
    800009dc:	a805                	j	80000a0c <SendDataPOST+0x37e>
    800009de:	00004597          	auipc	a1,0x4
    800009e2:	78258593          	addi	a1,a1,1922 # 80005160 <__rodata_start+0x358>
    800009e6:	ea843503          	ld	a0,-344(s0)
    800009ea:	985ff0ef          	jal	ra,8000036e <read_output>
    800009ee:	87aa                	mv	a5,a0
    800009f0:	cb99                	beqz	a5,80000a06 <SendDataPOST+0x378>
    800009f2:	00004517          	auipc	a0,0x4
    800009f6:	77e50513          	addi	a0,a0,1918 # 80005170 <__rodata_start+0x368>
    800009fa:	7bd000ef          	jal	ra,800019b6 <log_info>
    800009fe:	4785                	li	a5,1
    80000a00:	fef42223          	sw	a5,-28(s0)
    80000a04:	a021                	j	80000a0c <SendDataPOST+0x37e>
    80000a06:	4529                	li	a0,10
    80000a08:	1b9000ef          	jal	ra,800013c0 <delay>
    80000a0c:	fe442783          	lw	a5,-28(s0)
    80000a10:	0007871b          	sext.w	a4,a5
    80000a14:	4785                	li	a5,1
    80000a16:	fcf714e3          	bne	a4,a5,800009de <SendDataPOST+0x350>
    80000a1a:	a809                	j	80000a2c <SendDataPOST+0x39e>
    80000a1c:	00004517          	auipc	a0,0x4
    80000a20:	77450513          	addi	a0,a0,1908 # 80005190 <__rodata_start+0x388>
    80000a24:	793000ef          	jal	ra,800019b6 <log_info>
    80000a28:	4781                	li	a5,0
    80000a2a:	a091                	j	80000a6e <SendDataPOST+0x3e0>
    80000a2c:	00004597          	auipc	a1,0x4
    80000a30:	78458593          	addi	a1,a1,1924 # 800051b0 <__rodata_start+0x3a8>
    80000a34:	ea843503          	ld	a0,-344(s0)
    80000a38:	88dff0ef          	jal	ra,800002c4 <write_cmd>
    80000a3c:	00004597          	auipc	a1,0x4
    80000a40:	78c58593          	addi	a1,a1,1932 # 800051c8 <__rodata_start+0x3c0>
    80000a44:	ea843503          	ld	a0,-344(s0)
    80000a48:	927ff0ef          	jal	ra,8000036e <read_output>
    80000a4c:	87aa                	mv	a5,a0
    80000a4e:	cb89                	beqz	a5,80000a60 <SendDataPOST+0x3d2>
    80000a50:	00004517          	auipc	a0,0x4
    80000a54:	78050513          	addi	a0,a0,1920 # 800051d0 <__rodata_start+0x3c8>
    80000a58:	75f000ef          	jal	ra,800019b6 <log_info>
    80000a5c:	4785                	li	a5,1
    80000a5e:	a801                	j	80000a6e <SendDataPOST+0x3e0>
    80000a60:	00004517          	auipc	a0,0x4
    80000a64:	79850513          	addi	a0,a0,1944 # 800051f8 <__rodata_start+0x3f0>
    80000a68:	74f000ef          	jal	ra,800019b6 <log_info>
    80000a6c:	4781                	li	a5,0
    80000a6e:	853e                	mv	a0,a5
    80000a70:	70b6                	ld	ra,360(sp)
    80000a72:	7416                	ld	s0,352(sp)
    80000a74:	6175                	addi	sp,sp,368
    80000a76:	8082                	ret

0000000080000a78 <SendDataRF>:
    80000a78:	d7010113          	addi	sp,sp,-656
    80000a7c:	28113423          	sd	ra,648(sp)
    80000a80:	28813023          	sd	s0,640(sp)
    80000a84:	26913c23          	sd	s1,632(sp)
    80000a88:	0d00                	addi	s0,sp,656
    80000a8a:	d8a43423          	sd	a0,-632(s0)
    80000a8e:	87ae                	mv	a5,a1
    80000a90:	d6c43c23          	sd	a2,-648(s0)
    80000a94:	d8f42223          	sw	a5,-636(s0)
    80000a98:	dc040793          	addi	a5,s0,-576
    80000a9c:	1f400613          	li	a2,500
    80000aa0:	4581                	li	a1,0
    80000aa2:	853e                	mv	a0,a5
    80000aa4:	369030ef          	jal	ra,8000460c <memset>
    80000aa8:	07e00793          	li	a5,126
    80000aac:	dcf40023          	sb	a5,-576(s0)
    80000ab0:	fc042e23          	sw	zero,-36(s0)
    80000ab4:	a035                	j	80000ae0 <SendDataRF+0x68>
    80000ab6:	fdc42783          	lw	a5,-36(s0)
    80000aba:	d7843703          	ld	a4,-648(s0)
    80000abe:	973e                	add	a4,a4,a5
    80000ac0:	fdc42783          	lw	a5,-36(s0)
    80000ac4:	27c5                	addiw	a5,a5,17
    80000ac6:	2781                	sext.w	a5,a5
    80000ac8:	00074703          	lbu	a4,0(a4)
    80000acc:	fe040693          	addi	a3,s0,-32
    80000ad0:	97b6                	add	a5,a5,a3
    80000ad2:	dee78023          	sb	a4,-544(a5)
    80000ad6:	fdc42783          	lw	a5,-36(s0)
    80000ada:	2785                	addiw	a5,a5,1
    80000adc:	fcf42e23          	sw	a5,-36(s0)
    80000ae0:	fdc42483          	lw	s1,-36(s0)
    80000ae4:	d7843503          	ld	a0,-648(s0)
    80000ae8:	46f030ef          	jal	ra,80004756 <strlen>
    80000aec:	87aa                	mv	a5,a0
    80000aee:	fcf4e4e3          	bltu	s1,a5,80000ab6 <SendDataRF+0x3e>
    80000af2:	d7843503          	ld	a0,-648(s0)
    80000af6:	461030ef          	jal	ra,80004756 <strlen>
    80000afa:	87aa                	mv	a5,a0
    80000afc:	17c2                	slli	a5,a5,0x30
    80000afe:	93c1                	srli	a5,a5,0x30
    80000b00:	27b9                	addiw	a5,a5,14
    80000b02:	17c2                	slli	a5,a5,0x30
    80000b04:	93c1                	srli	a5,a5,0x30
    80000b06:	daf41f23          	sh	a5,-578(s0)
    80000b0a:	dbe40793          	addi	a5,s0,-578
    80000b0e:	fcf43023          	sd	a5,-64(s0)
    80000b12:	fc043783          	ld	a5,-64(s0)
    80000b16:	00178713          	addi	a4,a5,1
    80000b1a:	fce43023          	sd	a4,-64(s0)
    80000b1e:	0007c783          	lbu	a5,0(a5)
    80000b22:	dcf40123          	sb	a5,-574(s0)
    80000b26:	fc043783          	ld	a5,-64(s0)
    80000b2a:	0007c783          	lbu	a5,0(a5)
    80000b2e:	dcf400a3          	sb	a5,-575(s0)
    80000b32:	47c1                	li	a5,16
    80000b34:	dcf401a3          	sb	a5,-573(s0)
    80000b38:	4785                	li	a5,1
    80000b3a:	dcf40223          	sb	a5,-572(s0)
    80000b3e:	00005797          	auipc	a5,0x5
    80000b42:	87a78793          	addi	a5,a5,-1926 # 800053b8 <__rodata_start+0x5b0>
    80000b46:	6390                	ld	a2,0(a5)
    80000b48:	6794                	ld	a3,8(a5)
    80000b4a:	6b98                	ld	a4,16(a5)
    80000b4c:	6f9c                	ld	a5,24(a5)
    80000b4e:	d8c43c23          	sd	a2,-616(s0)
    80000b52:	dad43023          	sd	a3,-608(s0)
    80000b56:	dae43423          	sd	a4,-600(s0)
    80000b5a:	daf43823          	sd	a5,-592(s0)
    80000b5e:	fc042c23          	sw	zero,-40(s0)
    80000b62:	a81d                	j	80000b98 <SendDataRF+0x120>
    80000b64:	fd842783          	lw	a5,-40(s0)
    80000b68:	2795                	addiw	a5,a5,5
    80000b6a:	0007869b          	sext.w	a3,a5
    80000b6e:	fd842703          	lw	a4,-40(s0)
    80000b72:	d8442783          	lw	a5,-636(s0)
    80000b76:	078e                	slli	a5,a5,0x3
    80000b78:	fe040613          	addi	a2,s0,-32
    80000b7c:	97b2                	add	a5,a5,a2
    80000b7e:	97ba                	add	a5,a5,a4
    80000b80:	db87c703          	lbu	a4,-584(a5)
    80000b84:	fe040793          	addi	a5,s0,-32
    80000b88:	97b6                	add	a5,a5,a3
    80000b8a:	dee78023          	sb	a4,-544(a5)
    80000b8e:	fd842783          	lw	a5,-40(s0)
    80000b92:	2785                	addiw	a5,a5,1
    80000b94:	fcf42c23          	sw	a5,-40(s0)
    80000b98:	fd842783          	lw	a5,-40(s0)
    80000b9c:	0007871b          	sext.w	a4,a5
    80000ba0:	479d                	li	a5,7
    80000ba2:	fce7d1e3          	bge	a5,a4,80000b64 <SendDataRF+0xec>
    80000ba6:	57fd                	li	a5,-1
    80000ba8:	dcf406a3          	sb	a5,-563(s0)
    80000bac:	57f9                	li	a5,-2
    80000bae:	dcf40723          	sb	a5,-562(s0)
    80000bb2:	dc0407a3          	sb	zero,-561(s0)
    80000bb6:	dc040823          	sb	zero,-560(s0)
    80000bba:	fc042a23          	sw	zero,-44(s0)
    80000bbe:	478d                	li	a5,3
    80000bc0:	fcf42823          	sw	a5,-48(s0)
    80000bc4:	a01d                	j	80000bea <SendDataRF+0x172>
    80000bc6:	fd042783          	lw	a5,-48(s0)
    80000bca:	fe040713          	addi	a4,s0,-32
    80000bce:	97ba                	add	a5,a5,a4
    80000bd0:	de07c783          	lbu	a5,-544(a5)
    80000bd4:	2781                	sext.w	a5,a5
    80000bd6:	fd442703          	lw	a4,-44(s0)
    80000bda:	9fb9                	addw	a5,a5,a4
    80000bdc:	fcf42a23          	sw	a5,-44(s0)
    80000be0:	fd042783          	lw	a5,-48(s0)
    80000be4:	2785                	addiw	a5,a5,1
    80000be6:	fcf42823          	sw	a5,-48(s0)
    80000bea:	fd042483          	lw	s1,-48(s0)
    80000bee:	d7843503          	ld	a0,-648(s0)
    80000bf2:	365030ef          	jal	ra,80004756 <strlen>
    80000bf6:	87aa                	mv	a5,a0
    80000bf8:	07c5                	addi	a5,a5,17
    80000bfa:	fcf4e6e3          	bltu	s1,a5,80000bc6 <SendDataRF+0x14e>
    80000bfe:	fd442783          	lw	a5,-44(s0)
    80000c02:	fff7c793          	not	a5,a5
    80000c06:	2781                	sext.w	a5,a5
    80000c08:	2781                	sext.w	a5,a5
    80000c0a:	0ff7f793          	andi	a5,a5,255
    80000c0e:	faf42e23          	sw	a5,-68(s0)
    80000c12:	d7843503          	ld	a0,-648(s0)
    80000c16:	341030ef          	jal	ra,80004756 <strlen>
    80000c1a:	87aa                	mv	a5,a0
    80000c1c:	2781                	sext.w	a5,a5
    80000c1e:	27c5                	addiw	a5,a5,17
    80000c20:	2781                	sext.w	a5,a5
    80000c22:	faf42c23          	sw	a5,-72(s0)
    80000c26:	fbc42783          	lw	a5,-68(s0)
    80000c2a:	0ff7f713          	andi	a4,a5,255
    80000c2e:	fb842783          	lw	a5,-72(s0)
    80000c32:	fe040693          	addi	a3,s0,-32
    80000c36:	97b6                	add	a5,a5,a3
    80000c38:	dee78023          	sb	a4,-544(a5)
    80000c3c:	d8442783          	lw	a5,-636(s0)
    80000c40:	2781                	sext.w	a5,a5
    80000c42:	eb81                	bnez	a5,80000c52 <SendDataRF+0x1da>
    80000c44:	00004517          	auipc	a0,0x4
    80000c48:	6e450513          	addi	a0,a0,1764 # 80005328 <__rodata_start+0x520>
    80000c4c:	344010ef          	jal	ra,80001f90 <printf>
    80000c50:	a825                	j	80000c88 <SendDataRF+0x210>
    80000c52:	d8442783          	lw	a5,-636(s0)
    80000c56:	0007871b          	sext.w	a4,a5
    80000c5a:	4785                	li	a5,1
    80000c5c:	00f71963          	bne	a4,a5,80000c6e <SendDataRF+0x1f6>
    80000c60:	00004517          	auipc	a0,0x4
    80000c64:	6f850513          	addi	a0,a0,1784 # 80005358 <__rodata_start+0x550>
    80000c68:	328010ef          	jal	ra,80001f90 <printf>
    80000c6c:	a831                	j	80000c88 <SendDataRF+0x210>
    80000c6e:	d8442783          	lw	a5,-636(s0)
    80000c72:	0007871b          	sext.w	a4,a5
    80000c76:	4789                	li	a5,2
    80000c78:	00f71863          	bne	a4,a5,80000c88 <SendDataRF+0x210>
    80000c7c:	00004517          	auipc	a0,0x4
    80000c80:	70c50513          	addi	a0,a0,1804 # 80005388 <__rodata_start+0x580>
    80000c84:	30c010ef          	jal	ra,80001f90 <printf>
    80000c88:	fc042623          	sw	zero,-52(s0)
    80000c8c:	a015                	j	80000cb0 <SendDataRF+0x238>
    80000c8e:	fcc42783          	lw	a5,-52(s0)
    80000c92:	fe040713          	addi	a4,s0,-32
    80000c96:	97ba                	add	a5,a5,a4
    80000c98:	de07c783          	lbu	a5,-544(a5)
    80000c9c:	85be                	mv	a1,a5
    80000c9e:	d8843503          	ld	a0,-632(s0)
    80000ca2:	4ee010ef          	jal	ra,80002190 <write_uart_character>
    80000ca6:	fcc42783          	lw	a5,-52(s0)
    80000caa:	2785                	addiw	a5,a5,1
    80000cac:	fcf42623          	sw	a5,-52(s0)
    80000cb0:	dbe45783          	lhu	a5,-578(s0)
    80000cb4:	2781                	sext.w	a5,a5
    80000cb6:	278d                	addiw	a5,a5,3
    80000cb8:	0007871b          	sext.w	a4,a5
    80000cbc:	fcc42783          	lw	a5,-52(s0)
    80000cc0:	2781                	sext.w	a5,a5
    80000cc2:	fcf756e3          	bge	a4,a5,80000c8e <SendDataRF+0x216>
    80000cc6:	0001                	nop
    80000cc8:	853e                	mv	a0,a5
    80000cca:	28813083          	ld	ra,648(sp)
    80000cce:	28013403          	ld	s0,640(sp)
    80000cd2:	27813483          	ld	s1,632(sp)
    80000cd6:	29010113          	addi	sp,sp,656
    80000cda:	8082                	ret

0000000080000cdc <calchecksum>:
    80000cdc:	7139                	addi	sp,sp,-64
    80000cde:	fc06                	sd	ra,56(sp)
    80000ce0:	f822                	sd	s0,48(sp)
    80000ce2:	f426                	sd	s1,40(sp)
    80000ce4:	0080                	addi	s0,sp,64
    80000ce6:	fca43423          	sd	a0,-56(s0)
    80000cea:	fc042e23          	sw	zero,-36(s0)
    80000cee:	478d                	li	a5,3
    80000cf0:	fcf42c23          	sw	a5,-40(s0)
    80000cf4:	a01d                	j	80000d1a <calchecksum+0x3e>
    80000cf6:	fd842783          	lw	a5,-40(s0)
    80000cfa:	fc843703          	ld	a4,-56(s0)
    80000cfe:	97ba                	add	a5,a5,a4
    80000d00:	0007c783          	lbu	a5,0(a5)
    80000d04:	2781                	sext.w	a5,a5
    80000d06:	fdc42703          	lw	a4,-36(s0)
    80000d0a:	9fb9                	addw	a5,a5,a4
    80000d0c:	fcf42e23          	sw	a5,-36(s0)
    80000d10:	fd842783          	lw	a5,-40(s0)
    80000d14:	2785                	addiw	a5,a5,1
    80000d16:	fcf42c23          	sw	a5,-40(s0)
    80000d1a:	fd842483          	lw	s1,-40(s0)
    80000d1e:	fc843503          	ld	a0,-56(s0)
    80000d22:	235030ef          	jal	ra,80004756 <strlen>
    80000d26:	87aa                	mv	a5,a0
    80000d28:	17fd                	addi	a5,a5,-1
    80000d2a:	fcf4e6e3          	bltu	s1,a5,80000cf6 <calchecksum+0x1a>
    80000d2e:	fdc42783          	lw	a5,-36(s0)
    80000d32:	8b85                	andi	a5,a5,1
    80000d34:	2781                	sext.w	a5,a5
    80000d36:	c399                	beqz	a5,80000d3c <calchecksum+0x60>
    80000d38:	4785                	li	a5,1
    80000d3a:	a011                	j	80000d3e <calchecksum+0x62>
    80000d3c:	4781                	li	a5,0
    80000d3e:	853e                	mv	a0,a5
    80000d40:	70e2                	ld	ra,56(sp)
    80000d42:	7442                	ld	s0,48(sp)
    80000d44:	74a2                	ld	s1,40(sp)
    80000d46:	6121                	addi	sp,sp,64
    80000d48:	8082                	ret

0000000080000d4a <checkReceivedData>:
    80000d4a:	7179                	addi	sp,sp,-48
    80000d4c:	f406                	sd	ra,40(sp)
    80000d4e:	f022                	sd	s0,32(sp)
    80000d50:	1800                	addi	s0,sp,48
    80000d52:	fca43c23          	sd	a0,-40(s0)
    80000d56:	fd843783          	ld	a5,-40(s0)
    80000d5a:	0007c783          	lbu	a5,0(a5)
    80000d5e:	2781                	sext.w	a5,a5
    80000d60:	fd07879b          	addiw	a5,a5,-48
    80000d64:	fef42623          	sw	a5,-20(s0)
    80000d68:	fec42783          	lw	a5,-20(s0)
    80000d6c:	0007871b          	sext.w	a4,a5
    80000d70:	4789                	li	a5,2
    80000d72:	04f70363          	beq	a4,a5,80000db8 <checkReceivedData+0x6e>
    80000d76:	fec42783          	lw	a5,-20(s0)
    80000d7a:	0007871b          	sext.w	a4,a5
    80000d7e:	4789                	li	a5,2
    80000d80:	04e7c363          	blt	a5,a4,80000dc6 <checkReceivedData+0x7c>
    80000d84:	fec42783          	lw	a5,-20(s0)
    80000d88:	2781                	sext.w	a5,a5
    80000d8a:	cb89                	beqz	a5,80000d9c <checkReceivedData+0x52>
    80000d8c:	fec42783          	lw	a5,-20(s0)
    80000d90:	0007871b          	sext.w	a4,a5
    80000d94:	4785                	li	a5,1
    80000d96:	00f70a63          	beq	a4,a5,80000daa <checkReceivedData+0x60>
    80000d9a:	a035                	j	80000dc6 <checkReceivedData+0x7c>
    80000d9c:	00004517          	auipc	a0,0x4
    80000da0:	63c50513          	addi	a0,a0,1596 # 800053d8 <__rodata_start+0x5d0>
    80000da4:	1ec010ef          	jal	ra,80001f90 <printf>
    80000da8:	a005                	j	80000dc8 <checkReceivedData+0x7e>
    80000daa:	00004517          	auipc	a0,0x4
    80000dae:	65650513          	addi	a0,a0,1622 # 80005400 <__rodata_start+0x5f8>
    80000db2:	1de010ef          	jal	ra,80001f90 <printf>
    80000db6:	a809                	j	80000dc8 <checkReceivedData+0x7e>
    80000db8:	00004517          	auipc	a0,0x4
    80000dbc:	67050513          	addi	a0,a0,1648 # 80005428 <__rodata_start+0x620>
    80000dc0:	1d0010ef          	jal	ra,80001f90 <printf>
    80000dc4:	a011                	j	80000dc8 <checkReceivedData+0x7e>
    80000dc6:	0001                	nop
    80000dc8:	fd843783          	ld	a5,-40(s0)
    80000dcc:	0785                	addi	a5,a5,1
    80000dce:	85be                	mv	a1,a5
    80000dd0:	00004517          	auipc	a0,0x4
    80000dd4:	68050513          	addi	a0,a0,1664 # 80005450 <__rodata_start+0x648>
    80000dd8:	1b8010ef          	jal	ra,80001f90 <printf>
    80000ddc:	0001                	nop
    80000dde:	70a2                	ld	ra,40(sp)
    80000de0:	7402                	ld	s0,32(sp)
    80000de2:	6145                	addi	sp,sp,48
    80000de4:	8082                	ret

0000000080000de6 <sendDatatoNode>:
    80000de6:	7179                	addi	sp,sp,-48
    80000de8:	f406                	sd	ra,40(sp)
    80000dea:	f022                	sd	s0,32(sp)
    80000dec:	1800                	addi	s0,sp,48
    80000dee:	87aa                	mv	a5,a0
    80000df0:	fcf40fa3          	sb	a5,-33(s0)
    80000df4:	fdf44783          	lbu	a5,-33(s0)
    80000df8:	2781                	sext.w	a5,a5
    80000dfa:	fd07879b          	addiw	a5,a5,-48
    80000dfe:	fef42623          	sw	a5,-20(s0)
    80000e02:	fec42783          	lw	a5,-20(s0)
    80000e06:	0007871b          	sext.w	a4,a5
    80000e0a:	4789                	li	a5,2
    80000e0c:	04f70d63          	beq	a4,a5,80000e66 <sendDatatoNode+0x80>
    80000e10:	fec42783          	lw	a5,-20(s0)
    80000e14:	0007871b          	sext.w	a4,a5
    80000e18:	4789                	li	a5,2
    80000e1a:	06e7c263          	blt	a5,a4,80000e7e <sendDatatoNode+0x98>
    80000e1e:	fec42783          	lw	a5,-20(s0)
    80000e22:	2781                	sext.w	a5,a5
    80000e24:	cb89                	beqz	a5,80000e36 <sendDatatoNode+0x50>
    80000e26:	fec42783          	lw	a5,-20(s0)
    80000e2a:	0007871b          	sext.w	a4,a5
    80000e2e:	4785                	li	a5,1
    80000e30:	00f70f63          	beq	a4,a5,80000e4e <sendDatatoNode+0x68>
    80000e34:	a0a9                	j	80000e7e <sendDatatoNode+0x98>
    80000e36:	ae018793          	addi	a5,gp,-1312 # 80006458 <uart_instance>
    80000e3a:	679c                	ld	a5,8(a5)
    80000e3c:	00004617          	auipc	a2,0x4
    80000e40:	61c60613          	addi	a2,a2,1564 # 80005458 <__rodata_start+0x650>
    80000e44:	4581                	li	a1,0
    80000e46:	853e                	mv	a0,a5
    80000e48:	c31ff0ef          	jal	ra,80000a78 <SendDataRF>
    80000e4c:	a815                	j	80000e80 <sendDatatoNode+0x9a>
    80000e4e:	ae018793          	addi	a5,gp,-1312 # 80006458 <uart_instance>
    80000e52:	679c                	ld	a5,8(a5)
    80000e54:	00004617          	auipc	a2,0x4
    80000e58:	60460613          	addi	a2,a2,1540 # 80005458 <__rodata_start+0x650>
    80000e5c:	4585                	li	a1,1
    80000e5e:	853e                	mv	a0,a5
    80000e60:	c19ff0ef          	jal	ra,80000a78 <SendDataRF>
    80000e64:	a831                	j	80000e80 <sendDatatoNode+0x9a>
    80000e66:	ae018793          	addi	a5,gp,-1312 # 80006458 <uart_instance>
    80000e6a:	679c                	ld	a5,8(a5)
    80000e6c:	00004617          	auipc	a2,0x4
    80000e70:	5ec60613          	addi	a2,a2,1516 # 80005458 <__rodata_start+0x650>
    80000e74:	4589                	li	a1,2
    80000e76:	853e                	mv	a0,a5
    80000e78:	c01ff0ef          	jal	ra,80000a78 <SendDataRF>
    80000e7c:	a011                	j	80000e80 <sendDatatoNode+0x9a>
    80000e7e:	0001                	nop
    80000e80:	0001                	nop
    80000e82:	70a2                	ld	ra,40(sp)
    80000e84:	7402                	ld	s0,32(sp)
    80000e86:	6145                	addi	sp,sp,48
    80000e88:	8082                	ret

0000000080000e8a <main>:
    80000e8a:	dc010113          	addi	sp,sp,-576
    80000e8e:	22113c23          	sd	ra,568(sp)
    80000e92:	22813823          	sd	s0,560(sp)
    80000e96:	0480                	addi	s0,sp,576
    80000e98:	00004517          	auipc	a0,0x4
    80000e9c:	5e850513          	addi	a0,a0,1512 # 80005480 <__rodata_start+0x678>
    80000ea0:	0f0010ef          	jal	ra,80001f90 <printf>
    80000ea4:	4785                	li	a5,1
    80000ea6:	fcf42c23          	sw	a5,-40(s0)
    80000eaa:	9f6ff0ef          	jal	ra,800000a0 <init_variables>
    80000eae:	30a020ef          	jal	ra,800031b8 <pinmux_enable_uart1_uart2>
    80000eb2:	ae018793          	addi	a5,gp,-1312 # 80006458 <uart_instance>
    80000eb6:	6398                	ld	a4,0(a5)
    80000eb8:	67f1                	lui	a5,0x1c
    80000eba:	20078593          	addi	a1,a5,512 # 1c200 <_tbss_end+0x1c200>
    80000ebe:	853a                	mv	a0,a4
    80000ec0:	1d6010ef          	jal	ra,80002096 <set_baud_rate>
    80000ec4:	ae018793          	addi	a5,gp,-1312 # 80006458 <uart_instance>
    80000ec8:	6798                	ld	a4,8(a5)
    80000eca:	6789                	lui	a5,0x2
    80000ecc:	58078593          	addi	a1,a5,1408 # 2580 <_tbss_end+0x2580>
    80000ed0:	853a                	mv	a0,a4
    80000ed2:	1c4010ef          	jal	ra,80002096 <set_baud_rate>
    80000ed6:	ae018793          	addi	a5,gp,-1312 # 80006458 <uart_instance>
    80000eda:	6b98                	ld	a4,16(a5)
    80000edc:	67f1                	lui	a5,0x1c
    80000ede:	20078593          	addi	a1,a5,512 # 1c200 <_tbss_end+0x1c200>
    80000ee2:	853a                	mv	a0,a4
    80000ee4:	1b2010ef          	jal	ra,80002096 <set_baud_rate>
    80000ee8:	6cf010ef          	jal	ra,80002db6 <plic_init>
    80000eec:	4569                	li	a0,26
    80000eee:	018020ef          	jal	ra,80002f06 <configure_interrupt>
    80000ef2:	ce818793          	addi	a5,gp,-792 # 80006660 <isr_table>
    80000ef6:	00001717          	auipc	a4,0x1
    80000efa:	5d670713          	addi	a4,a4,1494 # 800024cc <uart1_isr>
    80000efe:	ebf8                	sd	a4,208(a5)
    80000f00:	456d                	li	a0,27
    80000f02:	004020ef          	jal	ra,80002f06 <configure_interrupt>
    80000f06:	ce818793          	addi	a5,gp,-792 # 80006660 <isr_table>
    80000f0a:	00001717          	auipc	a4,0x1
    80000f0e:	74670713          	addi	a4,a4,1862 # 80002650 <uart2_isr>
    80000f12:	eff8                	sd	a4,216(a5)
    80000f14:	85418793          	addi	a5,gp,-1964 # 800061cc <uart1_tx_isr_count>
    80000f18:	4398                	lw	a4,0(a5)
    80000f1a:	84018793          	addi	a5,gp,-1984 # 800061b8 <uart1_prev_tx_isr_count_flag>
    80000f1e:	c398                	sw	a4,0(a5)
    80000f20:	85818793          	addi	a5,gp,-1960 # 800061d0 <uart1_rcv_isr_count>
    80000f24:	4398                	lw	a4,0(a5)
    80000f26:	83418793          	addi	a5,gp,-1996 # 800061ac <uart1_prev_rcv_isr_count_flag>
    80000f2a:	c398                	sw	a4,0(a5)
    80000f2c:	85c18793          	addi	a5,gp,-1956 # 800061d4 <uart2_tx_isr_count>
    80000f30:	4398                	lw	a4,0(a5)
    80000f32:	84418793          	addi	a5,gp,-1980 # 800061bc <uart2_prev_tx_isr_count_flag>
    80000f36:	c398                	sw	a4,0(a5)
    80000f38:	86018793          	addi	a5,gp,-1952 # 800061d8 <uart2_rcv_isr_count>
    80000f3c:	4398                	lw	a4,0(a5)
    80000f3e:	83818793          	addi	a5,gp,-1992 # 800061b0 <uart2_prev_rcv_isr_count_flag>
    80000f42:	c398                	sw	a4,0(a5)
    80000f44:	a10ff0ef          	jal	ra,80000154 <free_uart_buffers>
    80000f48:	00004517          	auipc	a0,0x4
    80000f4c:	55050513          	addi	a0,a0,1360 # 80005498 <__rodata_start+0x690>
    80000f50:	040010ef          	jal	ra,80001f90 <printf>
    80000f54:	ae018793          	addi	a5,gp,-1312 # 80006458 <uart_instance>
    80000f58:	679c                	ld	a5,8(a5)
    80000f5a:	00c7c783          	lbu	a5,12(a5)
    80000f5e:	0ff7f793          	andi	a5,a5,255
    80000f62:	2781                	sext.w	a5,a5
    80000f64:	85be                	mv	a1,a5
    80000f66:	00004517          	auipc	a0,0x4
    80000f6a:	54250513          	addi	a0,a0,1346 # 800054a8 <__rodata_start+0x6a0>
    80000f6e:	022010ef          	jal	ra,80001f90 <printf>
    80000f72:	ae018793          	addi	a5,gp,-1312 # 80006458 <uart_instance>
    80000f76:	6b9c                	ld	a5,16(a5)
    80000f78:	00c7c783          	lbu	a5,12(a5)
    80000f7c:	0ff7f793          	andi	a5,a5,255
    80000f80:	2781                	sext.w	a5,a5
    80000f82:	85be                	mv	a1,a5
    80000f84:	00004517          	auipc	a0,0x4
    80000f88:	54450513          	addi	a0,a0,1348 # 800054c8 <__rodata_start+0x6c0>
    80000f8c:	004010ef          	jal	ra,80001f90 <printf>
    80000f90:	ae018793          	addi	a5,gp,-1312 # 80006458 <uart_instance>
    80000f94:	679c                	ld	a5,8(a5)
    80000f96:	4591                	li	a1,4
    80000f98:	853e                	mv	a0,a5
    80000f9a:	1d2010ef          	jal	ra,8000216c <enable_uart_interrupts>
    80000f9e:	ae018793          	addi	a5,gp,-1312 # 80006458 <uart_instance>
    80000fa2:	6b9c                	ld	a5,16(a5)
    80000fa4:	4591                	li	a1,4
    80000fa6:	853e                	mv	a0,a5
    80000fa8:	1c4010ef          	jal	ra,8000216c <enable_uart_interrupts>
    80000fac:	42a1                	li	t0,8
    80000fae:	3002a073          	csrs	mstatus,t0
    80000fb2:	6285                	lui	t0,0x1
    80000fb4:	8002829b          	addiw	t0,t0,-2048
    80000fb8:	3042a073          	csrs	mie,t0
    80000fbc:	300027f3          	csrr	a5,mstatus
    80000fc0:	0007809b          	sext.w	ra,a5
    80000fc4:	8586                	mv	a1,ra
    80000fc6:	00004517          	auipc	a0,0x4
    80000fca:	52250513          	addi	a0,a0,1314 # 800054e8 <__rodata_start+0x6e0>
    80000fce:	7c3000ef          	jal	ra,80001f90 <printf>
    80000fd2:	304027f3          	csrr	a5,mie
    80000fd6:	0007809b          	sext.w	ra,a5
    80000fda:	8586                	mv	a1,ra
    80000fdc:	00004517          	auipc	a0,0x4
    80000fe0:	50c50513          	addi	a0,a0,1292 # 800054e8 <__rodata_start+0x6e0>
    80000fe4:	7ad000ef          	jal	ra,80001f90 <printf>
    80000fe8:	344027f3          	csrr	a5,mip
    80000fec:	0007809b          	sext.w	ra,a5
    80000ff0:	8586                	mv	a1,ra
    80000ff2:	00004517          	auipc	a0,0x4
    80000ff6:	4f650513          	addi	a0,a0,1270 # 800054e8 <__rodata_start+0x6e0>
    80000ffa:	797000ef          	jal	ra,80001f90 <printf>
    80000ffe:	00004517          	auipc	a0,0x4
    80001002:	48250513          	addi	a0,a0,1154 # 80005480 <__rodata_start+0x678>
    80001006:	78b000ef          	jal	ra,80001f90 <printf>
    8000100a:	ae018793          	addi	a5,gp,-1312 # 80006458 <uart_instance>
    8000100e:	6b9c                	ld	a5,16(a5)
    80001010:	853e                	mv	a0,a5
    80001012:	be4ff0ef          	jal	ra,800003f6 <setup>
    80001016:	87aa                	mv	a5,a0
    80001018:	cb81                	beqz	a5,80001028 <main+0x19e>
    8000101a:	00004517          	auipc	a0,0x4
    8000101e:	4de50513          	addi	a0,a0,1246 # 800054f8 <__rodata_start+0x6f0>
    80001022:	76f000ef          	jal	ra,80001f90 <printf>
    80001026:	a039                	j	80001034 <main+0x1aa>
    80001028:	00004517          	auipc	a0,0x4
    8000102c:	4f050513          	addi	a0,a0,1264 # 80005518 <__rodata_start+0x710>
    80001030:	761000ef          	jal	ra,80001f90 <printf>
    80001034:	fc042a23          	sw	zero,-44(s0)
    80001038:	fc042823          	sw	zero,-48(s0)
    8000103c:	fe042623          	sw	zero,-20(s0)
    80001040:	a821                	j	80001058 <main+0x1ce>
    80001042:	3e800593          	li	a1,1000
    80001046:	7d000513          	li	a0,2000
    8000104a:	728000ef          	jal	ra,80001772 <delay_loop>
    8000104e:	fec42783          	lw	a5,-20(s0)
    80001052:	2785                	addiw	a5,a5,1
    80001054:	fef42623          	sw	a5,-20(s0)
    80001058:	fec42783          	lw	a5,-20(s0)
    8000105c:	0007871b          	sext.w	a4,a5
    80001060:	47a5                	li	a5,9
    80001062:	fee7d0e3          	bge	a5,a4,80001042 <main+0x1b8>
    80001066:	85818793          	addi	a5,gp,-1960 # 800061d0 <uart1_rcv_isr_count>
    8000106a:	439c                	lw	a5,0(a5)
    8000106c:	26078a63          	beqz	a5,800012e0 <main+0x456>
    80001070:	85818793          	addi	a5,gp,-1960 # 800061d0 <uart1_rcv_isr_count>
    80001074:	439c                	lw	a5,0(a5)
    80001076:	2785                	addiw	a5,a5,1
    80001078:	0007871b          	sext.w	a4,a5
    8000107c:	85818793          	addi	a5,gp,-1960 # 800061d0 <uart1_rcv_isr_count>
    80001080:	c398                	sw	a4,0(a5)
    80001082:	85818793          	addi	a5,gp,-1960 # 800061d0 <uart1_rcv_isr_count>
    80001086:	439c                	lw	a5,0(a5)
    80001088:	91018713          	addi	a4,gp,-1776 # 80006288 <u1_rcv_char>
    8000108c:	1782                	slli	a5,a5,0x20
    8000108e:	9381                	srli	a5,a5,0x20
    80001090:	97ba                	add	a5,a5,a4
    80001092:	00078023          	sb	zero,0(a5)
    80001096:	fe042423          	sw	zero,-24(s0)
    8000109a:	ac31                	j	800012b6 <main+0x42c>
    8000109c:	91018713          	addi	a4,gp,-1776 # 80006288 <u1_rcv_char>
    800010a0:	fe842783          	lw	a5,-24(s0)
    800010a4:	97ba                	add	a5,a5,a4
    800010a6:	0007c783          	lbu	a5,0(a5)
    800010aa:	873e                	mv	a4,a5
    800010ac:	07e00793          	li	a5,126
    800010b0:	04f71863          	bne	a4,a5,80001100 <main+0x276>
    800010b4:	fe842783          	lw	a5,-24(s0)
    800010b8:	278d                	addiw	a5,a5,3
    800010ba:	2781                	sext.w	a5,a5
    800010bc:	0007871b          	sext.w	a4,a5
    800010c0:	85818793          	addi	a5,gp,-1960 # 800061d0 <uart1_rcv_isr_count>
    800010c4:	439c                	lw	a5,0(a5)
    800010c6:	37fd                	addiw	a5,a5,-1
    800010c8:	2781                	sext.w	a5,a5
    800010ca:	02f77b63          	bgeu	a4,a5,80001100 <main+0x276>
    800010ce:	fe842783          	lw	a5,-24(s0)
    800010d2:	278d                	addiw	a5,a5,3
    800010d4:	2781                	sext.w	a5,a5
    800010d6:	91018713          	addi	a4,gp,-1776 # 80006288 <u1_rcv_char>
    800010da:	97ba                	add	a5,a5,a4
    800010dc:	0007c783          	lbu	a5,0(a5)
    800010e0:	873e                	mv	a4,a5
    800010e2:	08b00793          	li	a5,139
    800010e6:	00f71d63          	bne	a4,a5,80001100 <main+0x276>
    800010ea:	00004517          	auipc	a0,0x4
    800010ee:	44e50513          	addi	a0,a0,1102 # 80005538 <__rodata_start+0x730>
    800010f2:	0c5000ef          	jal	ra,800019b6 <log_info>
    800010f6:	fe842783          	lw	a5,-24(s0)
    800010fa:	27a9                	addiw	a5,a5,10
    800010fc:	fef42423          	sw	a5,-24(s0)
    80001100:	91018713          	addi	a4,gp,-1776 # 80006288 <u1_rcv_char>
    80001104:	fe842783          	lw	a5,-24(s0)
    80001108:	97ba                	add	a5,a5,a4
    8000110a:	0007c783          	lbu	a5,0(a5)
    8000110e:	873e                	mv	a4,a5
    80001110:	07e00793          	li	a5,126
    80001114:	18f71c63          	bne	a4,a5,800012ac <main+0x422>
    80001118:	fe842783          	lw	a5,-24(s0)
    8000111c:	278d                	addiw	a5,a5,3
    8000111e:	2781                	sext.w	a5,a5
    80001120:	0007871b          	sext.w	a4,a5
    80001124:	85818793          	addi	a5,gp,-1960 # 800061d0 <uart1_rcv_isr_count>
    80001128:	439c                	lw	a5,0(a5)
    8000112a:	37fd                	addiw	a5,a5,-1
    8000112c:	2781                	sext.w	a5,a5
    8000112e:	16f77f63          	bgeu	a4,a5,800012ac <main+0x422>
    80001132:	fe842783          	lw	a5,-24(s0)
    80001136:	278d                	addiw	a5,a5,3
    80001138:	2781                	sext.w	a5,a5
    8000113a:	91018713          	addi	a4,gp,-1776 # 80006288 <u1_rcv_char>
    8000113e:	97ba                	add	a5,a5,a4
    80001140:	0007c783          	lbu	a5,0(a5)
    80001144:	873e                	mv	a4,a5
    80001146:	09000793          	li	a5,144
    8000114a:	16f71163          	bne	a4,a5,800012ac <main+0x422>
    8000114e:	fbe40793          	addi	a5,s0,-66
    80001152:	fcf43423          	sd	a5,-56(s0)
    80001156:	fe842783          	lw	a5,-24(s0)
    8000115a:	2789                	addiw	a5,a5,2
    8000115c:	2781                	sext.w	a5,a5
    8000115e:	91018713          	addi	a4,gp,-1776 # 80006288 <u1_rcv_char>
    80001162:	97ba                	add	a5,a5,a4
    80001164:	0007c703          	lbu	a4,0(a5)
    80001168:	fc843783          	ld	a5,-56(s0)
    8000116c:	00e78023          	sb	a4,0(a5)
    80001170:	fe842783          	lw	a5,-24(s0)
    80001174:	2785                	addiw	a5,a5,1
    80001176:	0007871b          	sext.w	a4,a5
    8000117a:	fc843783          	ld	a5,-56(s0)
    8000117e:	0785                	addi	a5,a5,1
    80001180:	91018693          	addi	a3,gp,-1776 # 80006288 <u1_rcv_char>
    80001184:	9736                	add	a4,a4,a3
    80001186:	00074703          	lbu	a4,0(a4)
    8000118a:	00e78023          	sb	a4,0(a5)
    8000118e:	dc043423          	sd	zero,-568(s0)
    80001192:	dd040793          	addi	a5,s0,-560
    80001196:	1ec00713          	li	a4,492
    8000119a:	863a                	mv	a2,a4
    8000119c:	4581                	li	a1,0
    8000119e:	853e                	mv	a0,a5
    800011a0:	46c030ef          	jal	ra,8000460c <memset>
    800011a4:	fe042223          	sw	zero,-28(s0)
    800011a8:	a815                	j	800011dc <main+0x352>
    800011aa:	fe842703          	lw	a4,-24(s0)
    800011ae:	fe442783          	lw	a5,-28(s0)
    800011b2:	9fb9                	addw	a5,a5,a4
    800011b4:	2781                	sext.w	a5,a5
    800011b6:	27bd                	addiw	a5,a5,15
    800011b8:	2781                	sext.w	a5,a5
    800011ba:	91018713          	addi	a4,gp,-1776 # 80006288 <u1_rcv_char>
    800011be:	97ba                	add	a5,a5,a4
    800011c0:	0007c703          	lbu	a4,0(a5)
    800011c4:	fe442783          	lw	a5,-28(s0)
    800011c8:	ff040693          	addi	a3,s0,-16
    800011cc:	97b6                	add	a5,a5,a3
    800011ce:	dce78c23          	sb	a4,-552(a5)
    800011d2:	fe442783          	lw	a5,-28(s0)
    800011d6:	2785                	addiw	a5,a5,1
    800011d8:	fef42223          	sw	a5,-28(s0)
    800011dc:	fbe45783          	lhu	a5,-66(s0)
    800011e0:	2781                	sext.w	a5,a5
    800011e2:	37d1                	addiw	a5,a5,-12
    800011e4:	0007871b          	sext.w	a4,a5
    800011e8:	fe442783          	lw	a5,-28(s0)
    800011ec:	2781                	sext.w	a5,a5
    800011ee:	fae7cee3          	blt	a5,a4,800011aa <main+0x320>
    800011f2:	dc840793          	addi	a5,s0,-568
    800011f6:	853e                	mv	a0,a5
    800011f8:	b53ff0ef          	jal	ra,80000d4a <checkReceivedData>
    800011fc:	fe042023          	sw	zero,-32(s0)
    80001200:	fe842783          	lw	a5,-24(s0)
    80001204:	278d                	addiw	a5,a5,3
    80001206:	fcf42223          	sw	a5,-60(s0)
    8000120a:	fbe45783          	lhu	a5,-66(s0)
    8000120e:	2781                	sext.w	a5,a5
    80001210:	fe842703          	lw	a4,-24(s0)
    80001214:	9fb9                	addw	a5,a5,a4
    80001216:	2781                	sext.w	a5,a5
    80001218:	278d                	addiw	a5,a5,3
    8000121a:	fcf42023          	sw	a5,-64(s0)
    8000121e:	fc442783          	lw	a5,-60(s0)
    80001222:	fcf42e23          	sw	a5,-36(s0)
    80001226:	a01d                	j	8000124c <main+0x3c2>
    80001228:	91018713          	addi	a4,gp,-1776 # 80006288 <u1_rcv_char>
    8000122c:	fdc42783          	lw	a5,-36(s0)
    80001230:	97ba                	add	a5,a5,a4
    80001232:	0007c783          	lbu	a5,0(a5)
    80001236:	2781                	sext.w	a5,a5
    80001238:	fe042703          	lw	a4,-32(s0)
    8000123c:	9fb9                	addw	a5,a5,a4
    8000123e:	fef42023          	sw	a5,-32(s0)
    80001242:	fdc42783          	lw	a5,-36(s0)
    80001246:	2785                	addiw	a5,a5,1
    80001248:	fcf42e23          	sw	a5,-36(s0)
    8000124c:	fdc42703          	lw	a4,-36(s0)
    80001250:	fc042783          	lw	a5,-64(s0)
    80001254:	2701                	sext.w	a4,a4
    80001256:	2781                	sext.w	a5,a5
    80001258:	fce7d8e3          	bge	a5,a4,80001228 <main+0x39e>
    8000125c:	fe042783          	lw	a5,-32(s0)
    80001260:	8b85                	andi	a5,a5,1
    80001262:	2781                	sext.w	a5,a5
    80001264:	c799                	beqz	a5,80001272 <main+0x3e8>
    80001266:	00004517          	auipc	a0,0x4
    8000126a:	2fa50513          	addi	a0,a0,762 # 80005560 <__rodata_start+0x758>
    8000126e:	748000ef          	jal	ra,800019b6 <log_info>
    80001272:	ae018793          	addi	a5,gp,-1312 # 80006458 <uart_instance>
    80001276:	6b9c                	ld	a5,16(a5)
    80001278:	dc840713          	addi	a4,s0,-568
    8000127c:	00004697          	auipc	a3,0x4
    80001280:	30c68693          	addi	a3,a3,780 # 80005588 <__rodata_start+0x780>
    80001284:	863a                	mv	a2,a4
    80001286:	00004597          	auipc	a1,0x4
    8000128a:	30a58593          	addi	a1,a1,778 # 80005590 <__rodata_start+0x788>
    8000128e:	853e                	mv	a0,a5
    80001290:	bfeff0ef          	jal	ra,8000068e <SendDataPOST>
    80001294:	dc844783          	lbu	a5,-568(s0)
    80001298:	853e                	mv	a0,a5
    8000129a:	b4dff0ef          	jal	ra,80000de6 <sendDatatoNode>
    8000129e:	fe842703          	lw	a4,-24(s0)
    800012a2:	fc042783          	lw	a5,-64(s0)
    800012a6:	9fb9                	addw	a5,a5,a4
    800012a8:	fef42423          	sw	a5,-24(s0)
    800012ac:	fe842783          	lw	a5,-24(s0)
    800012b0:	2785                	addiw	a5,a5,1
    800012b2:	fef42423          	sw	a5,-24(s0)
    800012b6:	85818793          	addi	a5,gp,-1960 # 800061d0 <uart1_rcv_isr_count>
    800012ba:	439c                	lw	a5,0(a5)
    800012bc:	37fd                	addiw	a5,a5,-1
    800012be:	0007871b          	sext.w	a4,a5
    800012c2:	fe842783          	lw	a5,-24(s0)
    800012c6:	dce7ebe3          	bltu	a5,a4,8000109c <main+0x212>
    800012ca:	85818793          	addi	a5,gp,-1960 # 800061d0 <uart1_rcv_isr_count>
    800012ce:	0007a023          	sw	zero,0(a5)
    800012d2:	06400613          	li	a2,100
    800012d6:	4581                	li	a1,0
    800012d8:	91018513          	addi	a0,gp,-1776 # 80006288 <u1_rcv_char>
    800012dc:	330030ef          	jal	ra,8000460c <memset>
    800012e0:	3e800593          	li	a1,1000
    800012e4:	7d000513          	li	a0,2000
    800012e8:	48a000ef          	jal	ra,80001772 <delay_loop>
    800012ec:	bb81                	j	8000103c <main+0x1b2>
	...

00000000800012f0 <trap_entry>:
    800012f0:	7111                	addi	sp,sp,-256
    800012f2:	0001                	nop
    800012f4:	00000013          	nop
    800012f8:	e406                	sd	ra,8(sp)
    800012fa:	e80a                	sd	sp,16(sp)
    800012fc:	ec0e                	sd	gp,24(sp)
    800012fe:	f012                	sd	tp,32(sp)
    80001300:	f416                	sd	t0,40(sp)
    80001302:	f81a                	sd	t1,48(sp)
    80001304:	fc1e                	sd	t2,56(sp)
    80001306:	e0a2                	sd	s0,64(sp)
    80001308:	e4a6                	sd	s1,72(sp)
    8000130a:	e8aa                	sd	a0,80(sp)
    8000130c:	ecae                	sd	a1,88(sp)
    8000130e:	f0b2                	sd	a2,96(sp)
    80001310:	f4b6                	sd	a3,104(sp)
    80001312:	f8ba                	sd	a4,112(sp)
    80001314:	fcbe                	sd	a5,120(sp)
    80001316:	e142                	sd	a6,128(sp)
    80001318:	e546                	sd	a7,136(sp)
    8000131a:	e94a                	sd	s2,144(sp)
    8000131c:	ed4e                	sd	s3,152(sp)
    8000131e:	f152                	sd	s4,160(sp)
    80001320:	f556                	sd	s5,168(sp)
    80001322:	f95a                	sd	s6,176(sp)
    80001324:	fd5e                	sd	s7,184(sp)
    80001326:	e1e2                	sd	s8,192(sp)
    80001328:	e5e6                	sd	s9,200(sp)
    8000132a:	e9ea                	sd	s10,208(sp)
    8000132c:	edee                	sd	s11,216(sp)
    8000132e:	f1f2                	sd	t3,224(sp)
    80001330:	f5f6                	sd	t4,232(sp)
    80001332:	f9fa                	sd	t5,240(sp)
    80001334:	fdfe                	sd	t6,248(sp)
    80001336:	34202573          	csrr	a0,mcause
    8000133a:	341025f3          	csrr	a1,mepc
    8000133e:	860a                	mv	a2,sp
    80001340:	568000ef          	jal	ra,800018a8 <handle_trap>
    80001344:	34151073          	csrw	mepc,a0
    80001348:	60a2                	ld	ra,8(sp)
    8000134a:	6142                	ld	sp,16(sp)
    8000134c:	61e2                	ld	gp,24(sp)
    8000134e:	7202                	ld	tp,32(sp)
    80001350:	72a2                	ld	t0,40(sp)
    80001352:	7342                	ld	t1,48(sp)
    80001354:	73e2                	ld	t2,56(sp)
    80001356:	6406                	ld	s0,64(sp)
    80001358:	64a6                	ld	s1,72(sp)
    8000135a:	6546                	ld	a0,80(sp)
    8000135c:	65e6                	ld	a1,88(sp)
    8000135e:	7606                	ld	a2,96(sp)
    80001360:	76a6                	ld	a3,104(sp)
    80001362:	7746                	ld	a4,112(sp)
    80001364:	77e6                	ld	a5,120(sp)
    80001366:	680a                	ld	a6,128(sp)
    80001368:	68aa                	ld	a7,136(sp)
    8000136a:	694a                	ld	s2,144(sp)
    8000136c:	69ea                	ld	s3,152(sp)
    8000136e:	7a0a                	ld	s4,160(sp)
    80001370:	7aaa                	ld	s5,168(sp)
    80001372:	7b4a                	ld	s6,176(sp)
    80001374:	7bea                	ld	s7,184(sp)
    80001376:	6c0e                	ld	s8,192(sp)
    80001378:	6cae                	ld	s9,200(sp)
    8000137a:	6d4e                	ld	s10,208(sp)
    8000137c:	6dee                	ld	s11,216(sp)
    8000137e:	7e0e                	ld	t3,224(sp)
    80001380:	7eae                	ld	t4,232(sp)
    80001382:	7f4e                	ld	t5,240(sp)
    80001384:	7fee                	ld	t6,248(sp)
    80001386:	6111                	addi	sp,sp,256
    80001388:	30200073          	mret
	...

000000008000138e <waitfor>:
    8000138e:	7179                	addi	sp,sp,-48
    80001390:	f422                	sd	s0,40(sp)
    80001392:	1800                	addi	s0,sp,48
    80001394:	87aa                	mv	a5,a0
    80001396:	fcf42e23          	sw	a5,-36(s0)
    8000139a:	fe042623          	sw	zero,-20(s0)
    8000139e:	0001                	nop
    800013a0:	fec42783          	lw	a5,-20(s0)
    800013a4:	0017871b          	addiw	a4,a5,1
    800013a8:	fee42623          	sw	a4,-20(s0)
    800013ac:	fdc42703          	lw	a4,-36(s0)
    800013b0:	2701                	sext.w	a4,a4
    800013b2:	fee7e7e3          	bltu	a5,a4,800013a0 <waitfor+0x12>
    800013b6:	0001                	nop
    800013b8:	0001                	nop
    800013ba:	7422                	ld	s0,40(sp)
    800013bc:	6145                	addi	sp,sp,48
    800013be:	8082                	ret

00000000800013c0 <delay>:
    800013c0:	7179                	addi	sp,sp,-48
    800013c2:	f422                	sd	s0,40(sp)
    800013c4:	1800                	addi	s0,sp,48
    800013c6:	fca43c23          	sd	a0,-40(s0)
    800013ca:	fd843703          	ld	a4,-40(s0)
    800013ce:	3e800793          	li	a5,1000
    800013d2:	02f707b3          	mul	a5,a4,a5
    800013d6:	fef43423          	sd	a5,-24(s0)
    800013da:	a829                	j	800013f4 <delay+0x34>
    800013dc:	3e800793          	li	a5,1000
    800013e0:	fef43023          	sd	a5,-32(s0)
    800013e4:	0001                	nop
    800013e6:	fe043783          	ld	a5,-32(s0)
    800013ea:	fff78713          	addi	a4,a5,-1
    800013ee:	fee43023          	sd	a4,-32(s0)
    800013f2:	fbf5                	bnez	a5,800013e6 <delay+0x26>
    800013f4:	fe843783          	ld	a5,-24(s0)
    800013f8:	fff78713          	addi	a4,a5,-1
    800013fc:	fee43423          	sd	a4,-24(s0)
    80001400:	fff1                	bnez	a5,800013dc <delay+0x1c>
    80001402:	0001                	nop
    80001404:	0001                	nop
    80001406:	7422                	ld	s0,40(sp)
    80001408:	6145                	addi	sp,sp,48
    8000140a:	8082                	ret

000000008000140c <pow_10>:
    8000140c:	7179                	addi	sp,sp,-48
    8000140e:	f406                	sd	ra,40(sp)
    80001410:	f022                	sd	s0,32(sp)
    80001412:	1800                	addi	s0,sp,48
    80001414:	87aa                	mv	a5,a0
    80001416:	fcf42e23          	sw	a5,-36(s0)
    8000141a:	4785                	li	a5,1
    8000141c:	fef42623          	sw	a5,-20(s0)
    80001420:	fe042423          	sw	zero,-24(s0)
    80001424:	a005                	j	80001444 <pow_10+0x38>
    80001426:	fec42703          	lw	a4,-20(s0)
    8000142a:	87ba                	mv	a5,a4
    8000142c:	0027979b          	slliw	a5,a5,0x2
    80001430:	9fb9                	addw	a5,a5,a4
    80001432:	0017979b          	slliw	a5,a5,0x1
    80001436:	fef42623          	sw	a5,-20(s0)
    8000143a:	fe842783          	lw	a5,-24(s0)
    8000143e:	2785                	addiw	a5,a5,1
    80001440:	fef42423          	sw	a5,-24(s0)
    80001444:	fe842703          	lw	a4,-24(s0)
    80001448:	fdc42783          	lw	a5,-36(s0)
    8000144c:	2701                	sext.w	a4,a4
    8000144e:	2781                	sext.w	a5,a5
    80001450:	fcf76be3          	bltu	a4,a5,80001426 <pow_10+0x1a>
    80001454:	fec42783          	lw	a5,-20(s0)
    80001458:	853e                	mv	a0,a5
    8000145a:	785020ef          	jal	ra,800043de <__floatunsisf>
    8000145e:	87aa                	mv	a5,a0
    80001460:	853e                	mv	a0,a5
    80001462:	70a2                	ld	ra,40(sp)
    80001464:	7402                	ld	s0,32(sp)
    80001466:	6145                	addi	sp,sp,48
    80001468:	8082                	ret

000000008000146a <reverse>:
    8000146a:	7179                	addi	sp,sp,-48
    8000146c:	f422                	sd	s0,40(sp)
    8000146e:	1800                	addi	s0,sp,48
    80001470:	fca43c23          	sd	a0,-40(s0)
    80001474:	87ae                	mv	a5,a1
    80001476:	fcf42a23          	sw	a5,-44(s0)
    8000147a:	fe042623          	sw	zero,-20(s0)
    8000147e:	fd442783          	lw	a5,-44(s0)
    80001482:	37fd                	addiw	a5,a5,-1
    80001484:	fef42423          	sw	a5,-24(s0)
    80001488:	a899                	j	800014de <reverse+0x74>
    8000148a:	fec42783          	lw	a5,-20(s0)
    8000148e:	fd843703          	ld	a4,-40(s0)
    80001492:	97ba                	add	a5,a5,a4
    80001494:	0007c783          	lbu	a5,0(a5)
    80001498:	fef403a3          	sb	a5,-25(s0)
    8000149c:	fe842783          	lw	a5,-24(s0)
    800014a0:	fd843703          	ld	a4,-40(s0)
    800014a4:	973e                	add	a4,a4,a5
    800014a6:	fec42783          	lw	a5,-20(s0)
    800014aa:	fd843683          	ld	a3,-40(s0)
    800014ae:	97b6                	add	a5,a5,a3
    800014b0:	00074703          	lbu	a4,0(a4)
    800014b4:	00e78023          	sb	a4,0(a5)
    800014b8:	fe842783          	lw	a5,-24(s0)
    800014bc:	fd843703          	ld	a4,-40(s0)
    800014c0:	97ba                	add	a5,a5,a4
    800014c2:	fe744703          	lbu	a4,-25(s0)
    800014c6:	00e78023          	sb	a4,0(a5)
    800014ca:	fec42783          	lw	a5,-20(s0)
    800014ce:	2785                	addiw	a5,a5,1
    800014d0:	fef42623          	sw	a5,-20(s0)
    800014d4:	fe842783          	lw	a5,-24(s0)
    800014d8:	37fd                	addiw	a5,a5,-1
    800014da:	fef42423          	sw	a5,-24(s0)
    800014de:	fec42703          	lw	a4,-20(s0)
    800014e2:	fe842783          	lw	a5,-24(s0)
    800014e6:	2701                	sext.w	a4,a4
    800014e8:	2781                	sext.w	a5,a5
    800014ea:	faf740e3          	blt	a4,a5,8000148a <reverse+0x20>
    800014ee:	0001                	nop
    800014f0:	0001                	nop
    800014f2:	7422                	ld	s0,40(sp)
    800014f4:	6145                	addi	sp,sp,48
    800014f6:	8082                	ret

00000000800014f8 <int_to_string>:
    800014f8:	7179                	addi	sp,sp,-48
    800014fa:	f406                	sd	ra,40(sp)
    800014fc:	f022                	sd	s0,32(sp)
    800014fe:	1800                	addi	s0,sp,48
    80001500:	87aa                	mv	a5,a0
    80001502:	fcb43823          	sd	a1,-48(s0)
    80001506:	8732                	mv	a4,a2
    80001508:	fcf42e23          	sw	a5,-36(s0)
    8000150c:	87ba                	mv	a5,a4
    8000150e:	fcf42c23          	sw	a5,-40(s0)
    80001512:	fe042623          	sw	zero,-20(s0)
    80001516:	a081                	j	80001556 <int_to_string+0x5e>
    80001518:	fdc42703          	lw	a4,-36(s0)
    8000151c:	47a9                	li	a5,10
    8000151e:	02f767bb          	remw	a5,a4,a5
    80001522:	2781                	sext.w	a5,a5
    80001524:	0ff7f713          	andi	a4,a5,255
    80001528:	fec46783          	lwu	a5,-20(s0)
    8000152c:	fd043683          	ld	a3,-48(s0)
    80001530:	97b6                	add	a5,a5,a3
    80001532:	0307071b          	addiw	a4,a4,48
    80001536:	0ff77713          	andi	a4,a4,255
    8000153a:	00e78023          	sb	a4,0(a5)
    8000153e:	fec42783          	lw	a5,-20(s0)
    80001542:	2785                	addiw	a5,a5,1
    80001544:	fef42623          	sw	a5,-20(s0)
    80001548:	fdc42703          	lw	a4,-36(s0)
    8000154c:	47a9                	li	a5,10
    8000154e:	02f747bb          	divw	a5,a4,a5
    80001552:	fcf42e23          	sw	a5,-36(s0)
    80001556:	fdc42783          	lw	a5,-36(s0)
    8000155a:	2781                	sext.w	a5,a5
    8000155c:	ffd5                	bnez	a5,80001518 <int_to_string+0x20>
    8000155e:	a839                	j	8000157c <int_to_string+0x84>
    80001560:	fec46783          	lwu	a5,-20(s0)
    80001564:	fd043703          	ld	a4,-48(s0)
    80001568:	97ba                	add	a5,a5,a4
    8000156a:	03000713          	li	a4,48
    8000156e:	00e78023          	sb	a4,0(a5)
    80001572:	fec42783          	lw	a5,-20(s0)
    80001576:	2785                	addiw	a5,a5,1
    80001578:	fef42623          	sw	a5,-20(s0)
    8000157c:	fec42703          	lw	a4,-20(s0)
    80001580:	fd842783          	lw	a5,-40(s0)
    80001584:	2701                	sext.w	a4,a4
    80001586:	2781                	sext.w	a5,a5
    80001588:	fcf76ce3          	bltu	a4,a5,80001560 <int_to_string+0x68>
    8000158c:	fec42783          	lw	a5,-20(s0)
    80001590:	85be                	mv	a1,a5
    80001592:	fd043503          	ld	a0,-48(s0)
    80001596:	ed5ff0ef          	jal	ra,8000146a <reverse>
    8000159a:	fec46783          	lwu	a5,-20(s0)
    8000159e:	fd043703          	ld	a4,-48(s0)
    800015a2:	97ba                	add	a5,a5,a4
    800015a4:	00078023          	sb	zero,0(a5)
    800015a8:	fec42783          	lw	a5,-20(s0)
    800015ac:	853e                	mv	a0,a5
    800015ae:	70a2                	ld	ra,40(sp)
    800015b0:	7402                	ld	s0,32(sp)
    800015b2:	6145                	addi	sp,sp,48
    800015b4:	8082                	ret

00000000800015b6 <ftoa>:
    800015b6:	715d                	addi	sp,sp,-80
    800015b8:	e486                	sd	ra,72(sp)
    800015ba:	e0a2                	sd	s0,64(sp)
    800015bc:	0880                	addi	s0,sp,80
    800015be:	faa42e23          	sw	a0,-68(s0)
    800015c2:	fab43823          	sd	a1,-80(s0)
    800015c6:	87b2                	mv	a5,a2
    800015c8:	faf42c23          	sw	a5,-72(s0)
    800015cc:	fe042623          	sw	zero,-20(s0)
    800015d0:	fc043023          	sd	zero,-64(s0)
    800015d4:	fc043423          	sd	zero,-56(s0)
    800015d8:	fc043823          	sd	zero,-48(s0)
    800015dc:	fc042c23          	sw	zero,-40(s0)
    800015e0:	fc041e23          	sh	zero,-36(s0)
    800015e4:	fbc42503          	lw	a0,-68(s0)
    800015e8:	6ab020ef          	jal	ra,80004492 <__extendsfdf2>
    800015ec:	872a                	mv	a4,a0
    800015ee:	00004797          	auipc	a5,0x4
    800015f2:	fe278793          	addi	a5,a5,-30 # 800055d0 <__rodata_start+0x7c8>
    800015f6:	638c                	ld	a1,0(a5)
    800015f8:	853a                	mv	a0,a4
    800015fa:	5ed010ef          	jal	ra,800033e6 <__adddf3>
    800015fe:	87aa                	mv	a5,a0
    80001600:	853e                	mv	a0,a5
    80001602:	6ff020ef          	jal	ra,80004500 <__truncdfsf2>
    80001606:	87aa                	mv	a5,a0
    80001608:	faf42e23          	sw	a5,-68(s0)
    8000160c:	fbc42503          	lw	a0,-68(s0)
    80001610:	495020ef          	jal	ra,800042a4 <__fixsfsi>
    80001614:	87aa                	mv	a5,a0
    80001616:	fef42423          	sw	a5,-24(s0)
    8000161a:	fe842783          	lw	a5,-24(s0)
    8000161e:	853e                	mv	a0,a5
    80001620:	4f1020ef          	jal	ra,80004310 <__floatsisf>
    80001624:	87aa                	mv	a5,a0
    80001626:	85be                	mv	a1,a5
    80001628:	fbc42503          	lw	a0,-68(s0)
    8000162c:	11b020ef          	jal	ra,80003f46 <__subsf3>
    80001630:	87aa                	mv	a5,a0
    80001632:	fef42223          	sw	a5,-28(s0)
    80001636:	fe042023          	sw	zero,-32(s0)
    8000163a:	00000593          	li	a1,0
    8000163e:	fbc42503          	lw	a0,-68(s0)
    80001642:	692020ef          	jal	ra,80003cd4 <__lesf2>
    80001646:	87aa                	mv	a5,a0
    80001648:	0007de63          	bgez	a5,80001664 <ftoa+0xae>
    8000164c:	fe042783          	lw	a5,-32(s0)
    80001650:	fb043703          	ld	a4,-80(s0)
    80001654:	97ba                	add	a5,a5,a4
    80001656:	02d00713          	li	a4,45
    8000165a:	00e78023          	sb	a4,0(a5)
    8000165e:	4785                	li	a5,1
    80001660:	fef42023          	sw	a5,-32(s0)
    80001664:	fe842783          	lw	a5,-24(s0)
    80001668:	2781                	sext.w	a5,a5
    8000166a:	e385                	bnez	a5,8000168a <ftoa+0xd4>
    8000166c:	fe042783          	lw	a5,-32(s0)
    80001670:	fb043703          	ld	a4,-80(s0)
    80001674:	97ba                	add	a5,a5,a4
    80001676:	03000713          	li	a4,48
    8000167a:	00e78023          	sb	a4,0(a5)
    8000167e:	fe042783          	lw	a5,-32(s0)
    80001682:	2785                	addiw	a5,a5,1
    80001684:	fef42023          	sw	a5,-32(s0)
    80001688:	a099                	j	800016ce <ftoa+0x118>
    8000168a:	fe842783          	lw	a5,-24(s0)
    8000168e:	2781                	sext.w	a5,a5
    80001690:	0007d863          	bgez	a5,800016a0 <ftoa+0xea>
    80001694:	fe842783          	lw	a5,-24(s0)
    80001698:	40f007bb          	negw	a5,a5
    8000169c:	fef42423          	sw	a5,-24(s0)
    800016a0:	fc040713          	addi	a4,s0,-64
    800016a4:	fe842783          	lw	a5,-24(s0)
    800016a8:	4601                	li	a2,0
    800016aa:	85ba                	mv	a1,a4
    800016ac:	853e                	mv	a0,a5
    800016ae:	e4bff0ef          	jal	ra,800014f8 <int_to_string>
    800016b2:	87aa                	mv	a5,a0
    800016b4:	fef42623          	sw	a5,-20(s0)
    800016b8:	fe042783          	lw	a5,-32(s0)
    800016bc:	fb043703          	ld	a4,-80(s0)
    800016c0:	97ba                	add	a5,a5,a4
    800016c2:	fc040713          	addi	a4,s0,-64
    800016c6:	85ba                	mv	a1,a4
    800016c8:	853e                	mv	a0,a5
    800016ca:	7ed020ef          	jal	ra,800046b6 <strcpy>
    800016ce:	fec42703          	lw	a4,-20(s0)
    800016d2:	fe042783          	lw	a5,-32(s0)
    800016d6:	9fb9                	addw	a5,a5,a4
    800016d8:	fef42623          	sw	a5,-20(s0)
    800016dc:	fb842783          	lw	a5,-72(s0)
    800016e0:	2781                	sext.w	a5,a5
    800016e2:	c3d9                	beqz	a5,80001768 <ftoa+0x1b2>
    800016e4:	fec42783          	lw	a5,-20(s0)
    800016e8:	fb043703          	ld	a4,-80(s0)
    800016ec:	97ba                	add	a5,a5,a4
    800016ee:	02e00713          	li	a4,46
    800016f2:	00e78023          	sb	a4,0(a5)
    800016f6:	00000593          	li	a1,0
    800016fa:	fe442503          	lw	a0,-28(s0)
    800016fe:	5d6020ef          	jal	ra,80003cd4 <__lesf2>
    80001702:	87aa                	mv	a5,a0
    80001704:	0007da63          	bgez	a5,80001718 <ftoa+0x162>
    80001708:	fe442703          	lw	a4,-28(s0)
    8000170c:	800007b7          	lui	a5,0x80000
    80001710:	8fb9                	xor	a5,a5,a4
    80001712:	fef42223          	sw	a5,-28(s0)
    80001716:	a039                	j	80001724 <ftoa+0x16e>
    80001718:	00000593          	li	a1,0
    8000171c:	fe442503          	lw	a0,-28(s0)
    80001720:	4d2020ef          	jal	ra,80003bf2 <__eqsf2>
    80001724:	fb842783          	lw	a5,-72(s0)
    80001728:	853e                	mv	a0,a5
    8000172a:	ce3ff0ef          	jal	ra,8000140c <pow_10>
    8000172e:	87aa                	mv	a5,a0
    80001730:	85be                	mv	a1,a5
    80001732:	fe442503          	lw	a0,-28(s0)
    80001736:	622020ef          	jal	ra,80003d58 <__mulsf3>
    8000173a:	87aa                	mv	a5,a0
    8000173c:	fef42223          	sw	a5,-28(s0)
    80001740:	fe442503          	lw	a0,-28(s0)
    80001744:	361020ef          	jal	ra,800042a4 <__fixsfsi>
    80001748:	87aa                	mv	a5,a0
    8000174a:	0007869b          	sext.w	a3,a5
    8000174e:	fec42783          	lw	a5,-20(s0)
    80001752:	0785                	addi	a5,a5,1
    80001754:	fb043703          	ld	a4,-80(s0)
    80001758:	97ba                	add	a5,a5,a4
    8000175a:	fb842703          	lw	a4,-72(s0)
    8000175e:	863a                	mv	a2,a4
    80001760:	85be                	mv	a1,a5
    80001762:	8536                	mv	a0,a3
    80001764:	d95ff0ef          	jal	ra,800014f8 <int_to_string>
    80001768:	0001                	nop
    8000176a:	60a6                	ld	ra,72(sp)
    8000176c:	6406                	ld	s0,64(sp)
    8000176e:	6161                	addi	sp,sp,80
    80001770:	8082                	ret

0000000080001772 <delay_loop>:
    80001772:	7179                	addi	sp,sp,-48
    80001774:	f422                	sd	s0,40(sp)
    80001776:	1800                	addi	s0,sp,48
    80001778:	fca43c23          	sd	a0,-40(s0)
    8000177c:	fcb43823          	sd	a1,-48(s0)
    80001780:	fd043783          	ld	a5,-48(s0)
    80001784:	fef43423          	sd	a5,-24(s0)
    80001788:	a829                	j	800017a2 <delay_loop+0x30>
    8000178a:	fd043783          	ld	a5,-48(s0)
    8000178e:	fef43423          	sd	a5,-24(s0)
    80001792:	0001                	nop
    80001794:	fe843783          	ld	a5,-24(s0)
    80001798:	fff78713          	addi	a4,a5,-1 # ffffffff7fffffff <__stack_pointer$+0xfffffffef80003ff>
    8000179c:	fee43423          	sd	a4,-24(s0)
    800017a0:	fbf5                	bnez	a5,80001794 <delay_loop+0x22>
    800017a2:	fd843783          	ld	a5,-40(s0)
    800017a6:	fff78713          	addi	a4,a5,-1
    800017aa:	fce43c23          	sd	a4,-40(s0)
    800017ae:	fff1                	bnez	a5,8000178a <delay_loop+0x18>
    800017b0:	0001                	nop
    800017b2:	0001                	nop
    800017b4:	7422                	ld	s0,40(sp)
    800017b6:	6145                	addi	sp,sp,48
    800017b8:	8082                	ret

00000000800017ba <read_word>:
    800017ba:	1101                	addi	sp,sp,-32
    800017bc:	ec06                	sd	ra,24(sp)
    800017be:	e822                	sd	s0,16(sp)
    800017c0:	1000                	addi	s0,sp,32
    800017c2:	fea43423          	sd	a0,-24(s0)
    800017c6:	fe843783          	ld	a5,-24(s0)
    800017ca:	439c                	lw	a5,0(a5)
    800017cc:	863e                	mv	a2,a5
    800017ce:	fe843583          	ld	a1,-24(s0)
    800017d2:	00004517          	auipc	a0,0x4
    800017d6:	de650513          	addi	a0,a0,-538 # 800055b8 <__rodata_start+0x7b0>
    800017da:	226000ef          	jal	ra,80001a00 <log_debug>
    800017de:	fe843783          	ld	a5,-24(s0)
    800017e2:	439c                	lw	a5,0(a5)
    800017e4:	1782                	slli	a5,a5,0x20
    800017e6:	9381                	srli	a5,a5,0x20
    800017e8:	853e                	mv	a0,a5
    800017ea:	60e2                	ld	ra,24(sp)
    800017ec:	6442                	ld	s0,16(sp)
    800017ee:	6105                	addi	sp,sp,32
    800017f0:	8082                	ret

00000000800017f2 <write_word>:
    800017f2:	1101                	addi	sp,sp,-32
    800017f4:	ec06                	sd	ra,24(sp)
    800017f6:	e822                	sd	s0,16(sp)
    800017f8:	1000                	addi	s0,sp,32
    800017fa:	fea43423          	sd	a0,-24(s0)
    800017fe:	feb43023          	sd	a1,-32(s0)
    80001802:	fe043783          	ld	a5,-32(s0)
    80001806:	0007871b          	sext.w	a4,a5
    8000180a:	fe843783          	ld	a5,-24(s0)
    8000180e:	c398                	sw	a4,0(a5)
    80001810:	fe843783          	ld	a5,-24(s0)
    80001814:	439c                	lw	a5,0(a5)
    80001816:	863e                	mv	a2,a5
    80001818:	fe843583          	ld	a1,-24(s0)
    8000181c:	00004517          	auipc	a0,0x4
    80001820:	d9c50513          	addi	a0,a0,-612 # 800055b8 <__rodata_start+0x7b0>
    80001824:	1dc000ef          	jal	ra,80001a00 <log_debug>
    80001828:	0001                	nop
    8000182a:	60e2                	ld	ra,24(sp)
    8000182c:	6442                	ld	s0,16(sp)
    8000182e:	6105                	addi	sp,sp,32
    80001830:	8082                	ret

0000000080001832 <extract_ie_code>:
    80001832:	7179                	addi	sp,sp,-48
    80001834:	f406                	sd	ra,40(sp)
    80001836:	f022                	sd	s0,32(sp)
    80001838:	1800                	addi	s0,sp,48
    8000183a:	87aa                	mv	a5,a0
    8000183c:	fcf42e23          	sw	a5,-36(s0)
    80001840:	00004517          	auipc	a0,0x4
    80001844:	d9850513          	addi	a0,a0,-616 # 800055d8 <__rodata_start+0x7d0>
    80001848:	14a000ef          	jal	ra,80001992 <log_trace>
    8000184c:	fdc42703          	lw	a4,-36(s0)
    80001850:	800007b7          	lui	a5,0x80000
    80001854:	fff7c793          	not	a5,a5
    80001858:	8ff9                	and	a5,a5,a4
    8000185a:	fef42623          	sw	a5,-20(s0)
    8000185e:	fec42783          	lw	a5,-20(s0)
    80001862:	85be                	mv	a1,a5
    80001864:	00004517          	auipc	a0,0x4
    80001868:	d9450513          	addi	a0,a0,-620 # 800055f8 <__rodata_start+0x7f0>
    8000186c:	194000ef          	jal	ra,80001a00 <log_debug>
    80001870:	00004517          	auipc	a0,0x4
    80001874:	da050513          	addi	a0,a0,-608 # 80005610 <__rodata_start+0x808>
    80001878:	11a000ef          	jal	ra,80001992 <log_trace>
    8000187c:	fec42783          	lw	a5,-20(s0)
    80001880:	853e                	mv	a0,a5
    80001882:	70a2                	ld	ra,40(sp)
    80001884:	7402                	ld	s0,32(sp)
    80001886:	6145                	addi	sp,sp,48
    80001888:	8082                	ret

000000008000188a <default_handler>:
    8000188a:	1101                	addi	sp,sp,-32
    8000188c:	ec06                	sd	ra,24(sp)
    8000188e:	e822                	sd	s0,16(sp)
    80001890:	1000                	addi	s0,sp,32
    80001892:	fea43423          	sd	a0,-24(s0)
    80001896:	feb43023          	sd	a1,-32(s0)
    8000189a:	00004517          	auipc	a0,0x4
    8000189e:	d8e50513          	addi	a0,a0,-626 # 80005628 <__rodata_start+0x820>
    800018a2:	0f0000ef          	jal	ra,80001992 <log_trace>
    800018a6:	a001                	j	800018a6 <default_handler+0x1c>

00000000800018a8 <handle_trap>:
    800018a8:	7179                	addi	sp,sp,-48
    800018aa:	f406                	sd	ra,40(sp)
    800018ac:	f022                	sd	s0,32(sp)
    800018ae:	1800                	addi	s0,sp,48
    800018b0:	fca43c23          	sd	a0,-40(s0)
    800018b4:	fcb43823          	sd	a1,-48(s0)
    800018b8:	fe042623          	sw	zero,-20(s0)
    800018bc:	fe042423          	sw	zero,-24(s0)
    800018c0:	fe043023          	sd	zero,-32(s0)
    800018c4:	00004517          	auipc	a0,0x4
    800018c8:	d8450513          	addi	a0,a0,-636 # 80005648 <__rodata_start+0x840>
    800018cc:	0c6000ef          	jal	ra,80001992 <log_trace>
    800018d0:	45a1                	li	a1,8
    800018d2:	00004517          	auipc	a0,0x4
    800018d6:	d8e50513          	addi	a0,a0,-626 # 80005660 <__rodata_start+0x858>
    800018da:	126000ef          	jal	ra,80001a00 <log_debug>
    800018de:	03f00793          	li	a5,63
    800018e2:	fef42423          	sw	a5,-24(s0)
    800018e6:	fe842783          	lw	a5,-24(s0)
    800018ea:	4705                	li	a4,1
    800018ec:	00f717bb          	sllw	a5,a4,a5
    800018f0:	2781                	sext.w	a5,a5
    800018f2:	873e                	mv	a4,a5
    800018f4:	fd843783          	ld	a5,-40(s0)
    800018f8:	8ff9                	and	a5,a5,a4
    800018fa:	fef43023          	sd	a5,-32(s0)
    800018fe:	fe043783          	ld	a5,-32(s0)
    80001902:	c7a9                	beqz	a5,8000194c <handle_trap+0xa4>
    80001904:	fe043783          	ld	a5,-32(s0)
    80001908:	2781                	sext.w	a5,a5
    8000190a:	fff7c793          	not	a5,a5
    8000190e:	0007871b          	sext.w	a4,a5
    80001912:	fd843783          	ld	a5,-40(s0)
    80001916:	2781                	sext.w	a5,a5
    80001918:	8ff9                	and	a5,a5,a4
    8000191a:	fef42623          	sw	a5,-20(s0)
    8000191e:	fd043603          	ld	a2,-48(s0)
    80001922:	fd843583          	ld	a1,-40(s0)
    80001926:	00004517          	auipc	a0,0x4
    8000192a:	d5250513          	addi	a0,a0,-686 # 80005678 <__rodata_start+0x870>
    8000192e:	0d2000ef          	jal	ra,80001a00 <log_debug>
    80001932:	9e018713          	addi	a4,gp,-1568 # 80006358 <mcause_interrupt_table>
    80001936:	fec46783          	lwu	a5,-20(s0)
    8000193a:	078e                	slli	a5,a5,0x3
    8000193c:	97ba                	add	a5,a5,a4
    8000193e:	639c                	ld	a5,0(a5)
    80001940:	fd043583          	ld	a1,-48(s0)
    80001944:	fd843503          	ld	a0,-40(s0)
    80001948:	9782                	jalr	a5
    8000194a:	a03d                	j	80001978 <handle_trap+0xd0>
    8000194c:	fd043603          	ld	a2,-48(s0)
    80001950:	fd843583          	ld	a1,-40(s0)
    80001954:	00004517          	auipc	a0,0x4
    80001958:	d4c50513          	addi	a0,a0,-692 # 800056a0 <__rodata_start+0x898>
    8000195c:	05a000ef          	jal	ra,800019b6 <log_info>
    80001960:	a6018713          	addi	a4,gp,-1440 # 800063d8 <mcause_trap_table>
    80001964:	fd843783          	ld	a5,-40(s0)
    80001968:	078e                	slli	a5,a5,0x3
    8000196a:	97ba                	add	a5,a5,a4
    8000196c:	639c                	ld	a5,0(a5)
    8000196e:	fd043583          	ld	a1,-48(s0)
    80001972:	fd843503          	ld	a0,-40(s0)
    80001976:	9782                	jalr	a5
    80001978:	00004517          	auipc	a0,0x4
    8000197c:	d5050513          	addi	a0,a0,-688 # 800056c8 <__rodata_start+0x8c0>
    80001980:	012000ef          	jal	ra,80001992 <log_trace>
    80001984:	fd043783          	ld	a5,-48(s0)
    80001988:	853e                	mv	a0,a5
    8000198a:	70a2                	ld	ra,40(sp)
    8000198c:	7402                	ld	s0,32(sp)
    8000198e:	6145                	addi	sp,sp,48
    80001990:	8082                	ret

0000000080001992 <log_trace>:
    80001992:	7159                	addi	sp,sp,-112
    80001994:	f422                	sd	s0,40(sp)
    80001996:	1800                	addi	s0,sp,48
    80001998:	fca43c23          	sd	a0,-40(s0)
    8000199c:	e40c                	sd	a1,8(s0)
    8000199e:	e810                	sd	a2,16(s0)
    800019a0:	ec14                	sd	a3,24(s0)
    800019a2:	f018                	sd	a4,32(s0)
    800019a4:	f41c                	sd	a5,40(s0)
    800019a6:	03043823          	sd	a6,48(s0)
    800019aa:	03143c23          	sd	a7,56(s0)
    800019ae:	0001                	nop
    800019b0:	7422                	ld	s0,40(sp)
    800019b2:	6165                	addi	sp,sp,112
    800019b4:	8082                	ret

00000000800019b6 <log_info>:
    800019b6:	7159                	addi	sp,sp,-112
    800019b8:	f406                	sd	ra,40(sp)
    800019ba:	f022                	sd	s0,32(sp)
    800019bc:	1800                	addi	s0,sp,48
    800019be:	fca43c23          	sd	a0,-40(s0)
    800019c2:	e40c                	sd	a1,8(s0)
    800019c4:	e810                	sd	a2,16(s0)
    800019c6:	ec14                	sd	a3,24(s0)
    800019c8:	f018                	sd	a4,32(s0)
    800019ca:	f41c                	sd	a5,40(s0)
    800019cc:	03043823          	sd	a6,48(s0)
    800019d0:	03143c23          	sd	a7,56(s0)
    800019d4:	04040793          	addi	a5,s0,64
    800019d8:	fcf43823          	sd	a5,-48(s0)
    800019dc:	fd043783          	ld	a5,-48(s0)
    800019e0:	fc878793          	addi	a5,a5,-56 # ffffffff7fffffc8 <__stack_pointer$+0xfffffffef80003c8>
    800019e4:	fef43423          	sd	a5,-24(s0)
    800019e8:	fe843783          	ld	a5,-24(s0)
    800019ec:	85be                	mv	a1,a5
    800019ee:	fd843503          	ld	a0,-40(s0)
    800019f2:	1ea000ef          	jal	ra,80001bdc <_printf_>
    800019f6:	0001                	nop
    800019f8:	70a2                	ld	ra,40(sp)
    800019fa:	7402                	ld	s0,32(sp)
    800019fc:	6165                	addi	sp,sp,112
    800019fe:	8082                	ret

0000000080001a00 <log_debug>:
    80001a00:	7159                	addi	sp,sp,-112
    80001a02:	f422                	sd	s0,40(sp)
    80001a04:	1800                	addi	s0,sp,48
    80001a06:	fca43c23          	sd	a0,-40(s0)
    80001a0a:	e40c                	sd	a1,8(s0)
    80001a0c:	e810                	sd	a2,16(s0)
    80001a0e:	ec14                	sd	a3,24(s0)
    80001a10:	f018                	sd	a4,32(s0)
    80001a12:	f41c                	sd	a5,40(s0)
    80001a14:	03043823          	sd	a6,48(s0)
    80001a18:	03143c23          	sd	a7,56(s0)
    80001a1c:	0001                	nop
    80001a1e:	7422                	ld	s0,40(sp)
    80001a20:	6165                	addi	sp,sp,112
    80001a22:	8082                	ret

0000000080001a24 <log_warn>:
    80001a24:	7159                	addi	sp,sp,-112
    80001a26:	f406                	sd	ra,40(sp)
    80001a28:	f022                	sd	s0,32(sp)
    80001a2a:	1800                	addi	s0,sp,48
    80001a2c:	fca43c23          	sd	a0,-40(s0)
    80001a30:	e40c                	sd	a1,8(s0)
    80001a32:	e810                	sd	a2,16(s0)
    80001a34:	ec14                	sd	a3,24(s0)
    80001a36:	f018                	sd	a4,32(s0)
    80001a38:	f41c                	sd	a5,40(s0)
    80001a3a:	03043823          	sd	a6,48(s0)
    80001a3e:	03143c23          	sd	a7,56(s0)
    80001a42:	04040793          	addi	a5,s0,64
    80001a46:	fcf43823          	sd	a5,-48(s0)
    80001a4a:	fd043783          	ld	a5,-48(s0)
    80001a4e:	fc878793          	addi	a5,a5,-56
    80001a52:	fef43423          	sd	a5,-24(s0)
    80001a56:	fe843783          	ld	a5,-24(s0)
    80001a5a:	85be                	mv	a1,a5
    80001a5c:	fd843503          	ld	a0,-40(s0)
    80001a60:	17c000ef          	jal	ra,80001bdc <_printf_>
    80001a64:	0001                	nop
    80001a66:	70a2                	ld	ra,40(sp)
    80001a68:	7402                	ld	s0,32(sp)
    80001a6a:	6165                	addi	sp,sp,112
    80001a6c:	8082                	ret

0000000080001a6e <log_error>:
    80001a6e:	7159                	addi	sp,sp,-112
    80001a70:	f406                	sd	ra,40(sp)
    80001a72:	f022                	sd	s0,32(sp)
    80001a74:	1800                	addi	s0,sp,48
    80001a76:	fca43c23          	sd	a0,-40(s0)
    80001a7a:	e40c                	sd	a1,8(s0)
    80001a7c:	e810                	sd	a2,16(s0)
    80001a7e:	ec14                	sd	a3,24(s0)
    80001a80:	f018                	sd	a4,32(s0)
    80001a82:	f41c                	sd	a5,40(s0)
    80001a84:	03043823          	sd	a6,48(s0)
    80001a88:	03143c23          	sd	a7,56(s0)
    80001a8c:	04040793          	addi	a5,s0,64
    80001a90:	fcf43823          	sd	a5,-48(s0)
    80001a94:	fd043783          	ld	a5,-48(s0)
    80001a98:	fc878793          	addi	a5,a5,-56
    80001a9c:	fef43423          	sd	a5,-24(s0)
    80001aa0:	fe843783          	ld	a5,-24(s0)
    80001aa4:	85be                	mv	a1,a5
    80001aa6:	fd843503          	ld	a0,-40(s0)
    80001aaa:	132000ef          	jal	ra,80001bdc <_printf_>
    80001aae:	0001                	nop
    80001ab0:	70a2                	ld	ra,40(sp)
    80001ab2:	7402                	ld	s0,32(sp)
    80001ab4:	6165                	addi	sp,sp,112
    80001ab6:	8082                	ret

0000000080001ab8 <log_fatal>:
    80001ab8:	7159                	addi	sp,sp,-112
    80001aba:	f406                	sd	ra,40(sp)
    80001abc:	f022                	sd	s0,32(sp)
    80001abe:	1800                	addi	s0,sp,48
    80001ac0:	fca43c23          	sd	a0,-40(s0)
    80001ac4:	e40c                	sd	a1,8(s0)
    80001ac6:	e810                	sd	a2,16(s0)
    80001ac8:	ec14                	sd	a3,24(s0)
    80001aca:	f018                	sd	a4,32(s0)
    80001acc:	f41c                	sd	a5,40(s0)
    80001ace:	03043823          	sd	a6,48(s0)
    80001ad2:	03143c23          	sd	a7,56(s0)
    80001ad6:	04040793          	addi	a5,s0,64
    80001ada:	fcf43823          	sd	a5,-48(s0)
    80001ade:	fd043783          	ld	a5,-48(s0)
    80001ae2:	fc878793          	addi	a5,a5,-56
    80001ae6:	fef43423          	sd	a5,-24(s0)
    80001aea:	fe843783          	ld	a5,-24(s0)
    80001aee:	85be                	mv	a1,a5
    80001af0:	fd843503          	ld	a0,-40(s0)
    80001af4:	0e8000ef          	jal	ra,80001bdc <_printf_>
    80001af8:	00004517          	auipc	a0,0x4
    80001afc:	be850513          	addi	a0,a0,-1048 # 800056e0 <__rodata_start+0x8d8>
    80001b00:	eb7ff0ef          	jal	ra,800019b6 <log_info>
    80001b04:	a001                	j	80001b04 <log_fatal+0x4c>

0000000080001b06 <itoa>:
    80001b06:	7169                	addi	sp,sp,-304
    80001b08:	f606                	sd	ra,296(sp)
    80001b0a:	f222                	sd	s0,288(sp)
    80001b0c:	1a00                	addi	s0,sp,304
    80001b0e:	eca43c23          	sd	a0,-296(s0)
    80001b12:	87ae                	mv	a5,a1
    80001b14:	ecf42a23          	sw	a5,-300(s0)
    80001b18:	fe042623          	sw	zero,-20(s0)
    80001b1c:	fe042423          	sw	zero,-24(s0)
    80001b20:	ed446783          	lwu	a5,-300(s0)
    80001b24:	ed843703          	ld	a4,-296(s0)
    80001b28:	02f777b3          	remu	a5,a4,a5
    80001b2c:	0007871b          	sext.w	a4,a5
    80001b30:	fec42783          	lw	a5,-20(s0)
    80001b34:	078a                	slli	a5,a5,0x2
    80001b36:	ff040693          	addi	a3,s0,-16
    80001b3a:	97b6                	add	a5,a5,a3
    80001b3c:	eee7ac23          	sw	a4,-264(a5)
    80001b40:	ed446783          	lwu	a5,-300(s0)
    80001b44:	ed843703          	ld	a4,-296(s0)
    80001b48:	02f76063          	bltu	a4,a5,80001b68 <itoa+0x62>
    80001b4c:	ed446783          	lwu	a5,-300(s0)
    80001b50:	ed843703          	ld	a4,-296(s0)
    80001b54:	02f757b3          	divu	a5,a4,a5
    80001b58:	ecf43c23          	sd	a5,-296(s0)
    80001b5c:	fec42783          	lw	a5,-20(s0)
    80001b60:	2785                	addiw	a5,a5,1
    80001b62:	fef42623          	sw	a5,-20(s0)
    80001b66:	bf6d                	j	80001b20 <itoa+0x1a>
    80001b68:	0001                	nop
    80001b6a:	fec42783          	lw	a5,-20(s0)
    80001b6e:	2785                	addiw	a5,a5,1
    80001b70:	fef42623          	sw	a5,-20(s0)
    80001b74:	a0b1                	j	80001bc0 <itoa+0xba>
    80001b76:	fec42783          	lw	a5,-20(s0)
    80001b7a:	078a                	slli	a5,a5,0x2
    80001b7c:	ff040713          	addi	a4,s0,-16
    80001b80:	97ba                	add	a5,a5,a4
    80001b82:	ef87a783          	lw	a5,-264(a5)
    80001b86:	873e                	mv	a4,a5
    80001b88:	47a5                	li	a5,9
    80001b8a:	00e7f763          	bgeu	a5,a4,80001b98 <itoa+0x92>
    80001b8e:	05700793          	li	a5,87
    80001b92:	fef42423          	sw	a5,-24(s0)
    80001b96:	a029                	j	80001ba0 <itoa+0x9a>
    80001b98:	03000793          	li	a5,48
    80001b9c:	fef42423          	sw	a5,-24(s0)
    80001ba0:	fec42783          	lw	a5,-20(s0)
    80001ba4:	078a                	slli	a5,a5,0x2
    80001ba6:	ff040713          	addi	a4,s0,-16
    80001baa:	97ba                	add	a5,a5,a4
    80001bac:	ef87a783          	lw	a5,-264(a5)
    80001bb0:	fe842703          	lw	a4,-24(s0)
    80001bb4:	9fb9                	addw	a5,a5,a4
    80001bb6:	2781                	sext.w	a5,a5
    80001bb8:	2781                	sext.w	a5,a5
    80001bba:	853e                	mv	a0,a5
    80001bbc:	4a0000ef          	jal	ra,8000205c <putchar>
    80001bc0:	fec42783          	lw	a5,-20(s0)
    80001bc4:	fff7871b          	addiw	a4,a5,-1
    80001bc8:	fee42623          	sw	a4,-20(s0)
    80001bcc:	faf045e3          	bgtz	a5,80001b76 <itoa+0x70>
    80001bd0:	0001                	nop
    80001bd2:	0001                	nop
    80001bd4:	70b2                	ld	ra,296(sp)
    80001bd6:	7412                	ld	s0,288(sp)
    80001bd8:	6155                	addi	sp,sp,304
    80001bda:	8082                	ret

0000000080001bdc <_printf_>:
    80001bdc:	7119                	addi	sp,sp,-128
    80001bde:	fc86                	sd	ra,120(sp)
    80001be0:	f8a2                	sd	s0,112(sp)
    80001be2:	f4a6                	sd	s1,104(sp)
    80001be4:	f0ca                	sd	s2,96(sp)
    80001be6:	0100                	addi	s0,sp,128
    80001be8:	f8a43423          	sd	a0,-120(s0)
    80001bec:	f8b43023          	sd	a1,-128(s0)
    80001bf0:	00000793          	li	a5,0
    80001bf4:	fcf42423          	sw	a5,-56(s0)
    80001bf8:	f8043c23          	sd	zero,-104(s0)
    80001bfc:	fa043023          	sd	zero,-96(s0)
    80001c00:	fa043423          	sd	zero,-88(s0)
    80001c04:	fa042823          	sw	zero,-80(s0)
    80001c08:	fa041a23          	sh	zero,-76(s0)
    80001c0c:	a819                	j	80001c22 <_printf_+0x46>
    80001c0e:	36048a63          	beqz	s1,80001f82 <_printf_+0x3a6>
    80001c12:	8526                	mv	a0,s1
    80001c14:	448000ef          	jal	ra,8000205c <putchar>
    80001c18:	f8843783          	ld	a5,-120(s0)
    80001c1c:	0785                	addi	a5,a5,1
    80001c1e:	f8f43423          	sd	a5,-120(s0)
    80001c22:	f8843783          	ld	a5,-120(s0)
    80001c26:	0007c783          	lbu	a5,0(a5)
    80001c2a:	0007849b          	sext.w	s1,a5
    80001c2e:	8726                	mv	a4,s1
    80001c30:	02500793          	li	a5,37
    80001c34:	fcf71de3          	bne	a4,a5,80001c0e <_printf_+0x32>
    80001c38:	f8843783          	ld	a5,-120(s0)
    80001c3c:	0785                	addi	a5,a5,1
    80001c3e:	f8f43423          	sd	a5,-120(s0)
    80001c42:	f8843783          	ld	a5,-120(s0)
    80001c46:	fcf43023          	sd	a5,-64(s0)
    80001c4a:	fc042a23          	sw	zero,-44(s0)
    80001c4e:	fc042623          	sw	zero,-52(s0)
    80001c52:	f8843783          	ld	a5,-120(s0)
    80001c56:	00178713          	addi	a4,a5,1
    80001c5a:	f8e43423          	sd	a4,-120(s0)
    80001c5e:	0007c783          	lbu	a5,0(a5)
    80001c62:	0007849b          	sext.w	s1,a5
    80001c66:	8726                	mv	a4,s1
    80001c68:	02500793          	li	a5,37
    80001c6c:	2ef70563          	beq	a4,a5,80001f56 <_printf_+0x37a>
    80001c70:	8726                	mv	a4,s1
    80001c72:	02500793          	li	a5,37
    80001c76:	2ef74463          	blt	a4,a5,80001f5e <_printf_+0x382>
    80001c7a:	8726                	mv	a4,s1
    80001c7c:	07800793          	li	a5,120
    80001c80:	2ce7cf63          	blt	a5,a4,80001f5e <_printf_+0x382>
    80001c84:	8726                	mv	a4,s1
    80001c86:	06300793          	li	a5,99
    80001c8a:	2cf74a63          	blt	a4,a5,80001f5e <_printf_+0x382>
    80001c8e:	f9d4869b          	addiw	a3,s1,-99
    80001c92:	0006871b          	sext.w	a4,a3
    80001c96:	47d5                	li	a5,21
    80001c98:	2ce7e363          	bltu	a5,a4,80001f5e <_printf_+0x382>
    80001c9c:	02069793          	slli	a5,a3,0x20
    80001ca0:	9381                	srli	a5,a5,0x20
    80001ca2:	00279713          	slli	a4,a5,0x2
    80001ca6:	00004797          	auipc	a5,0x4
    80001caa:	a5278793          	addi	a5,a5,-1454 # 800056f8 <__rodata_start+0x8f0>
    80001cae:	97ba                	add	a5,a5,a4
    80001cb0:	439c                	lw	a5,0(a5)
    80001cb2:	0007871b          	sext.w	a4,a5
    80001cb6:	00004797          	auipc	a5,0x4
    80001cba:	a4278793          	addi	a5,a5,-1470 # 800056f8 <__rodata_start+0x8f0>
    80001cbe:	97ba                	add	a5,a5,a4
    80001cc0:	8782                	jr	a5
    80001cc2:	fd442783          	lw	a5,-44(s0)
    80001cc6:	2785                	addiw	a5,a5,1
    80001cc8:	fcf42a23          	sw	a5,-44(s0)
    80001ccc:	4785                	li	a5,1
    80001cce:	fcf42623          	sw	a5,-52(s0)
    80001cd2:	ac79                	j	80001f70 <_printf_+0x394>
    80001cd4:	f8043783          	ld	a5,-128(s0)
    80001cd8:	00878713          	addi	a4,a5,8
    80001cdc:	f8e43023          	sd	a4,-128(s0)
    80001ce0:	439c                	lw	a5,0(a5)
    80001ce2:	853e                	mv	a0,a5
    80001ce4:	378000ef          	jal	ra,8000205c <putchar>
    80001ce8:	a461                	j	80001f70 <_printf_+0x394>
    80001cea:	f8043783          	ld	a5,-128(s0)
    80001cee:	00878713          	addi	a4,a5,8
    80001cf2:	f8e43023          	sd	a4,-128(s0)
    80001cf6:	0007b903          	ld	s2,0(a5)
    80001cfa:	00091b63          	bnez	s2,80001d10 <_printf_+0x134>
    80001cfe:	00004917          	auipc	s2,0x4
    80001d02:	9f290913          	addi	s2,s2,-1550 # 800056f0 <__rodata_start+0x8e8>
    80001d06:	a029                	j	80001d10 <_printf_+0x134>
    80001d08:	8526                	mv	a0,s1
    80001d0a:	352000ef          	jal	ra,8000205c <putchar>
    80001d0e:	0905                	addi	s2,s2,1
    80001d10:	00094783          	lbu	a5,0(s2)
    80001d14:	0007849b          	sext.w	s1,a5
    80001d18:	f8e5                	bnez	s1,80001d08 <_printf_+0x12c>
    80001d1a:	ac99                	j	80001f70 <_printf_+0x394>
    80001d1c:	47a9                	li	a5,10
    80001d1e:	faf42e23          	sw	a5,-68(s0)
    80001d22:	fd442783          	lw	a5,-44(s0)
    80001d26:	0007871b          	sext.w	a4,a5
    80001d2a:	4785                	li	a5,1
    80001d2c:	00e7dc63          	bge	a5,a4,80001d44 <_printf_+0x168>
    80001d30:	f8043783          	ld	a5,-128(s0)
    80001d34:	00878713          	addi	a4,a5,8
    80001d38:	f8e43023          	sd	a4,-128(s0)
    80001d3c:	639c                	ld	a5,0(a5)
    80001d3e:	fcf43c23          	sd	a5,-40(s0)
    80001d42:	a81d                	j	80001d78 <_printf_+0x19c>
    80001d44:	fd442783          	lw	a5,-44(s0)
    80001d48:	0007871b          	sext.w	a4,a5
    80001d4c:	4785                	li	a5,1
    80001d4e:	00f71c63          	bne	a4,a5,80001d66 <_printf_+0x18a>
    80001d52:	f8043783          	ld	a5,-128(s0)
    80001d56:	00878713          	addi	a4,a5,8
    80001d5a:	f8e43023          	sd	a4,-128(s0)
    80001d5e:	639c                	ld	a5,0(a5)
    80001d60:	fcf43c23          	sd	a5,-40(s0)
    80001d64:	a811                	j	80001d78 <_printf_+0x19c>
    80001d66:	f8043783          	ld	a5,-128(s0)
    80001d6a:	00878713          	addi	a4,a5,8
    80001d6e:	f8e43023          	sd	a4,-128(s0)
    80001d72:	439c                	lw	a5,0(a5)
    80001d74:	fcf43c23          	sd	a5,-40(s0)
    80001d78:	fd843783          	ld	a5,-40(s0)
    80001d7c:	0007dc63          	bgez	a5,80001d94 <_printf_+0x1b8>
    80001d80:	02d00513          	li	a0,45
    80001d84:	2d8000ef          	jal	ra,8000205c <putchar>
    80001d88:	fd843783          	ld	a5,-40(s0)
    80001d8c:	40f007b3          	neg	a5,a5
    80001d90:	fcf43c23          	sd	a5,-40(s0)
    80001d94:	fbc42783          	lw	a5,-68(s0)
    80001d98:	85be                	mv	a1,a5
    80001d9a:	fd843503          	ld	a0,-40(s0)
    80001d9e:	d69ff0ef          	jal	ra,80001b06 <itoa>
    80001da2:	a2f9                	j	80001f70 <_printf_+0x394>
    80001da4:	f8043783          	ld	a5,-128(s0)
    80001da8:	00878713          	addi	a4,a5,8
    80001dac:	f8e43023          	sd	a4,-128(s0)
    80001db0:	639c                	ld	a5,0(a5)
    80001db2:	853e                	mv	a0,a5
    80001db4:	74c020ef          	jal	ra,80004500 <__truncdfsf2>
    80001db8:	87aa                	mv	a5,a0
    80001dba:	fcf42423          	sw	a5,-56(s0)
    80001dbe:	f9840793          	addi	a5,s0,-104
    80001dc2:	4619                	li	a2,6
    80001dc4:	85be                	mv	a1,a5
    80001dc6:	fc842503          	lw	a0,-56(s0)
    80001dca:	fecff0ef          	jal	ra,800015b6 <ftoa>
    80001dce:	fc042823          	sw	zero,-48(s0)
    80001dd2:	a805                	j	80001e02 <_printf_+0x226>
    80001dd4:	fd042783          	lw	a5,-48(s0)
    80001dd8:	fe040713          	addi	a4,s0,-32
    80001ddc:	97ba                	add	a5,a5,a4
    80001dde:	fb87c783          	lbu	a5,-72(a5)
    80001de2:	2781                	sext.w	a5,a5
    80001de4:	853e                	mv	a0,a5
    80001de6:	276000ef          	jal	ra,8000205c <putchar>
    80001dea:	fd042783          	lw	a5,-48(s0)
    80001dee:	0007871b          	sext.w	a4,a5
    80001df2:	47f5                	li	a5,29
    80001df4:	02e7c063          	blt	a5,a4,80001e14 <_printf_+0x238>
    80001df8:	fd042783          	lw	a5,-48(s0)
    80001dfc:	2785                	addiw	a5,a5,1
    80001dfe:	fcf42823          	sw	a5,-48(s0)
    80001e02:	fd042783          	lw	a5,-48(s0)
    80001e06:	fe040713          	addi	a4,s0,-32
    80001e0a:	97ba                	add	a5,a5,a4
    80001e0c:	fb87c783          	lbu	a5,-72(a5)
    80001e10:	f3f1                	bnez	a5,80001dd4 <_printf_+0x1f8>
    80001e12:	aab9                	j	80001f70 <_printf_+0x394>
    80001e14:	0001                	nop
    80001e16:	aaa9                	j	80001f70 <_printf_+0x394>
    80001e18:	47a9                	li	a5,10
    80001e1a:	faf42e23          	sw	a5,-68(s0)
    80001e1e:	fd442783          	lw	a5,-44(s0)
    80001e22:	0007871b          	sext.w	a4,a5
    80001e26:	4785                	li	a5,1
    80001e28:	00e7dc63          	bge	a5,a4,80001e40 <_printf_+0x264>
    80001e2c:	f8043783          	ld	a5,-128(s0)
    80001e30:	00878713          	addi	a4,a5,8
    80001e34:	f8e43023          	sd	a4,-128(s0)
    80001e38:	639c                	ld	a5,0(a5)
    80001e3a:	fcf43c23          	sd	a5,-40(s0)
    80001e3e:	a815                	j	80001e72 <_printf_+0x296>
    80001e40:	fd442783          	lw	a5,-44(s0)
    80001e44:	2781                	sext.w	a5,a5
    80001e46:	cb99                	beqz	a5,80001e5c <_printf_+0x280>
    80001e48:	f8043783          	ld	a5,-128(s0)
    80001e4c:	00878713          	addi	a4,a5,8
    80001e50:	f8e43023          	sd	a4,-128(s0)
    80001e54:	639c                	ld	a5,0(a5)
    80001e56:	fcf43c23          	sd	a5,-40(s0)
    80001e5a:	a821                	j	80001e72 <_printf_+0x296>
    80001e5c:	f8043783          	ld	a5,-128(s0)
    80001e60:	00878713          	addi	a4,a5,8
    80001e64:	f8e43023          	sd	a4,-128(s0)
    80001e68:	439c                	lw	a5,0(a5)
    80001e6a:	1782                	slli	a5,a5,0x20
    80001e6c:	9381                	srli	a5,a5,0x20
    80001e6e:	fcf43c23          	sd	a5,-40(s0)
    80001e72:	fbc42783          	lw	a5,-68(s0)
    80001e76:	85be                	mv	a1,a5
    80001e78:	fd843503          	ld	a0,-40(s0)
    80001e7c:	c8bff0ef          	jal	ra,80001b06 <itoa>
    80001e80:	a8c5                	j	80001f70 <_printf_+0x394>
    80001e82:	47a1                	li	a5,8
    80001e84:	faf42e23          	sw	a5,-68(s0)
    80001e88:	fd442783          	lw	a5,-44(s0)
    80001e8c:	0007871b          	sext.w	a4,a5
    80001e90:	4785                	li	a5,1
    80001e92:	00e7dc63          	bge	a5,a4,80001eaa <_printf_+0x2ce>
    80001e96:	f8043783          	ld	a5,-128(s0)
    80001e9a:	00878713          	addi	a4,a5,8
    80001e9e:	f8e43023          	sd	a4,-128(s0)
    80001ea2:	639c                	ld	a5,0(a5)
    80001ea4:	fcf43c23          	sd	a5,-40(s0)
    80001ea8:	a815                	j	80001edc <_printf_+0x300>
    80001eaa:	fd442783          	lw	a5,-44(s0)
    80001eae:	2781                	sext.w	a5,a5
    80001eb0:	cb99                	beqz	a5,80001ec6 <_printf_+0x2ea>
    80001eb2:	f8043783          	ld	a5,-128(s0)
    80001eb6:	00878713          	addi	a4,a5,8
    80001eba:	f8e43023          	sd	a4,-128(s0)
    80001ebe:	639c                	ld	a5,0(a5)
    80001ec0:	fcf43c23          	sd	a5,-40(s0)
    80001ec4:	a821                	j	80001edc <_printf_+0x300>
    80001ec6:	f8043783          	ld	a5,-128(s0)
    80001eca:	00878713          	addi	a4,a5,8
    80001ece:	f8e43023          	sd	a4,-128(s0)
    80001ed2:	439c                	lw	a5,0(a5)
    80001ed4:	1782                	slli	a5,a5,0x20
    80001ed6:	9381                	srli	a5,a5,0x20
    80001ed8:	fcf43c23          	sd	a5,-40(s0)
    80001edc:	fbc42783          	lw	a5,-68(s0)
    80001ee0:	85be                	mv	a1,a5
    80001ee2:	fd843503          	ld	a0,-40(s0)
    80001ee6:	c21ff0ef          	jal	ra,80001b06 <itoa>
    80001eea:	a059                	j	80001f70 <_printf_+0x394>
    80001eec:	47c1                	li	a5,16
    80001eee:	faf42e23          	sw	a5,-68(s0)
    80001ef2:	fd442783          	lw	a5,-44(s0)
    80001ef6:	0007871b          	sext.w	a4,a5
    80001efa:	4785                	li	a5,1
    80001efc:	00e7dc63          	bge	a5,a4,80001f14 <_printf_+0x338>
    80001f00:	f8043783          	ld	a5,-128(s0)
    80001f04:	00878713          	addi	a4,a5,8
    80001f08:	f8e43023          	sd	a4,-128(s0)
    80001f0c:	639c                	ld	a5,0(a5)
    80001f0e:	fcf43c23          	sd	a5,-40(s0)
    80001f12:	a815                	j	80001f46 <_printf_+0x36a>
    80001f14:	fd442783          	lw	a5,-44(s0)
    80001f18:	2781                	sext.w	a5,a5
    80001f1a:	cb99                	beqz	a5,80001f30 <_printf_+0x354>
    80001f1c:	f8043783          	ld	a5,-128(s0)
    80001f20:	00878713          	addi	a4,a5,8
    80001f24:	f8e43023          	sd	a4,-128(s0)
    80001f28:	639c                	ld	a5,0(a5)
    80001f2a:	fcf43c23          	sd	a5,-40(s0)
    80001f2e:	a821                	j	80001f46 <_printf_+0x36a>
    80001f30:	f8043783          	ld	a5,-128(s0)
    80001f34:	00878713          	addi	a4,a5,8
    80001f38:	f8e43023          	sd	a4,-128(s0)
    80001f3c:	439c                	lw	a5,0(a5)
    80001f3e:	1782                	slli	a5,a5,0x20
    80001f40:	9381                	srli	a5,a5,0x20
    80001f42:	fcf43c23          	sd	a5,-40(s0)
    80001f46:	fbc42783          	lw	a5,-68(s0)
    80001f4a:	85be                	mv	a1,a5
    80001f4c:	fd843503          	ld	a0,-40(s0)
    80001f50:	bb7ff0ef          	jal	ra,80001b06 <itoa>
    80001f54:	a831                	j	80001f70 <_printf_+0x394>
    80001f56:	8526                	mv	a0,s1
    80001f58:	104000ef          	jal	ra,8000205c <putchar>
    80001f5c:	a811                	j	80001f70 <_printf_+0x394>
    80001f5e:	02500513          	li	a0,37
    80001f62:	0fa000ef          	jal	ra,8000205c <putchar>
    80001f66:	fc043783          	ld	a5,-64(s0)
    80001f6a:	f8f43423          	sd	a5,-120(s0)
    80001f6e:	0001                	nop
    80001f70:	fcc42783          	lw	a5,-52(s0)
    80001f74:	2781                	sext.w	a5,a5
    80001f76:	c781                	beqz	a5,80001f7e <_printf_+0x3a2>
    80001f78:	fc042623          	sw	zero,-52(s0)
    80001f7c:	b9d9                	j	80001c52 <_printf_+0x76>
    80001f7e:	0001                	nop
    80001f80:	b14d                	j	80001c22 <_printf_+0x46>
    80001f82:	0001                	nop
    80001f84:	70e6                	ld	ra,120(sp)
    80001f86:	7446                	ld	s0,112(sp)
    80001f88:	74a6                	ld	s1,104(sp)
    80001f8a:	7906                	ld	s2,96(sp)
    80001f8c:	6109                	addi	sp,sp,128
    80001f8e:	8082                	ret

0000000080001f90 <printf>:
    80001f90:	7159                	addi	sp,sp,-112
    80001f92:	f406                	sd	ra,40(sp)
    80001f94:	f022                	sd	s0,32(sp)
    80001f96:	1800                	addi	s0,sp,48
    80001f98:	fca43c23          	sd	a0,-40(s0)
    80001f9c:	e40c                	sd	a1,8(s0)
    80001f9e:	e810                	sd	a2,16(s0)
    80001fa0:	ec14                	sd	a3,24(s0)
    80001fa2:	f018                	sd	a4,32(s0)
    80001fa4:	f41c                	sd	a5,40(s0)
    80001fa6:	03043823          	sd	a6,48(s0)
    80001faa:	03143c23          	sd	a7,56(s0)
    80001fae:	04040793          	addi	a5,s0,64
    80001fb2:	fcf43823          	sd	a5,-48(s0)
    80001fb6:	fd043783          	ld	a5,-48(s0)
    80001fba:	fc878793          	addi	a5,a5,-56
    80001fbe:	fef43423          	sd	a5,-24(s0)
    80001fc2:	fe843783          	ld	a5,-24(s0)
    80001fc6:	85be                	mv	a1,a5
    80001fc8:	fd843503          	ld	a0,-40(s0)
    80001fcc:	c11ff0ef          	jal	ra,80001bdc <_printf_>
    80001fd0:	4781                	li	a5,0
    80001fd2:	853e                	mv	a0,a5
    80001fd4:	70a2                	ld	ra,40(sp)
    80001fd6:	7402                	ld	s0,32(sp)
    80001fd8:	6165                	addi	sp,sp,112
    80001fda:	8082                	ret

0000000080001fdc <uart_init>:
    80001fdc:	1101                	addi	sp,sp,-32
    80001fde:	ec22                	sd	s0,24(sp)
    80001fe0:	1000                	addi	s0,sp,32
    80001fe2:	fe042623          	sw	zero,-20(s0)
    80001fe6:	a035                	j	80002012 <uart_init+0x36>
    80001fe8:	fec42783          	lw	a5,-20(s0)
    80001fec:	1137879b          	addiw	a5,a5,275
    80001ff0:	2781                	sext.w	a5,a5
    80001ff2:	0087979b          	slliw	a5,a5,0x8
    80001ff6:	2781                	sext.w	a5,a5
    80001ff8:	86be                	mv	a3,a5
    80001ffa:	ae018713          	addi	a4,gp,-1312 # 80006458 <uart_instance>
    80001ffe:	fec42783          	lw	a5,-20(s0)
    80002002:	078e                	slli	a5,a5,0x3
    80002004:	97ba                	add	a5,a5,a4
    80002006:	e394                	sd	a3,0(a5)
    80002008:	fec42783          	lw	a5,-20(s0)
    8000200c:	2785                	addiw	a5,a5,1
    8000200e:	fef42623          	sw	a5,-20(s0)
    80002012:	fec42783          	lw	a5,-20(s0)
    80002016:	0007871b          	sext.w	a4,a5
    8000201a:	4789                	li	a5,2
    8000201c:	fce7d6e3          	bge	a5,a4,80001fe8 <uart_init+0xc>
    80002020:	0001                	nop
    80002022:	0001                	nop
    80002024:	6462                	ld	s0,24(sp)
    80002026:	6105                	addi	sp,sp,32
    80002028:	8082                	ret

000000008000202a <getchar>:
    8000202a:	1141                	addi	sp,sp,-16
    8000202c:	e422                	sd	s0,8(sp)
    8000202e:	0800                	addi	s0,sp,16
    80002030:	0001                	nop
    80002032:	ae018793          	addi	a5,gp,-1312 # 80006458 <uart_instance>
    80002036:	639c                	ld	a5,0(a5)
    80002038:	00c7c783          	lbu	a5,12(a5)
    8000203c:	0ff7f793          	andi	a5,a5,255
    80002040:	2781                	sext.w	a5,a5
    80002042:	8b91                	andi	a5,a5,4
    80002044:	2781                	sext.w	a5,a5
    80002046:	d7f5                	beqz	a5,80002032 <getchar+0x8>
    80002048:	ae018793          	addi	a5,gp,-1312 # 80006458 <uart_instance>
    8000204c:	639c                	ld	a5,0(a5)
    8000204e:	479c                	lw	a5,8(a5)
    80002050:	2781                	sext.w	a5,a5
    80002052:	2781                	sext.w	a5,a5
    80002054:	853e                	mv	a0,a5
    80002056:	6422                	ld	s0,8(sp)
    80002058:	0141                	addi	sp,sp,16
    8000205a:	8082                	ret

000000008000205c <putchar>:
    8000205c:	1101                	addi	sp,sp,-32
    8000205e:	ec22                	sd	s0,24(sp)
    80002060:	1000                	addi	s0,sp,32
    80002062:	87aa                	mv	a5,a0
    80002064:	fef42623          	sw	a5,-20(s0)
    80002068:	0001                	nop
    8000206a:	ae018793          	addi	a5,gp,-1312 # 80006458 <uart_instance>
    8000206e:	639c                	ld	a5,0(a5)
    80002070:	00c7c783          	lbu	a5,12(a5)
    80002074:	0ff7f793          	andi	a5,a5,255
    80002078:	2781                	sext.w	a5,a5
    8000207a:	8b89                	andi	a5,a5,2
    8000207c:	2781                	sext.w	a5,a5
    8000207e:	f7f5                	bnez	a5,8000206a <putchar+0xe>
    80002080:	ae018793          	addi	a5,gp,-1312 # 80006458 <uart_instance>
    80002084:	639c                	ld	a5,0(a5)
    80002086:	fec42703          	lw	a4,-20(s0)
    8000208a:	c3d8                	sw	a4,4(a5)
    8000208c:	4781                	li	a5,0
    8000208e:	853e                	mv	a0,a5
    80002090:	6462                	ld	s0,24(sp)
    80002092:	6105                	addi	sp,sp,32
    80002094:	8082                	ret

0000000080002096 <set_baud_rate>:
    80002096:	7179                	addi	sp,sp,-48
    80002098:	f406                	sd	ra,40(sp)
    8000209a:	f022                	sd	s0,32(sp)
    8000209c:	1800                	addi	s0,sp,48
    8000209e:	fca43c23          	sd	a0,-40(s0)
    800020a2:	87ae                	mv	a5,a1
    800020a4:	fcf42a23          	sw	a5,-44(s0)
    800020a8:	00000793          	li	a5,0
    800020ac:	fef42423          	sw	a5,-24(s0)
    800020b0:	fe042623          	sw	zero,-20(s0)
    800020b4:	fd442783          	lw	a5,-44(s0)
    800020b8:	853e                	mv	a0,a5
    800020ba:	2fb010ef          	jal	ra,80003bb4 <__floatunsidf>
    800020be:	872a                	mv	a4,a0
    800020c0:	00003797          	auipc	a5,0x3
    800020c4:	69078793          	addi	a5,a5,1680 # 80005750 <__rodata_start+0x948>
    800020c8:	638c                	ld	a1,0(a5)
    800020ca:	853a                	mv	a0,a4
    800020cc:	0bb010ef          	jal	ra,80003986 <__muldf3>
    800020d0:	87aa                	mv	a5,a0
    800020d2:	873e                	mv	a4,a5
    800020d4:	00003797          	auipc	a5,0x3
    800020d8:	68478793          	addi	a5,a5,1668 # 80005758 <__rodata_start+0x950>
    800020dc:	85ba                	mv	a1,a4
    800020de:	6388                	ld	a0,0(a5)
    800020e0:	648010ef          	jal	ra,80003728 <__divdf3>
    800020e4:	87aa                	mv	a5,a0
    800020e6:	853e                	mv	a0,a5
    800020e8:	418020ef          	jal	ra,80004500 <__truncdfsf2>
    800020ec:	87aa                	mv	a5,a0
    800020ee:	fef42423          	sw	a5,-24(s0)
    800020f2:	fe842503          	lw	a0,-24(s0)
    800020f6:	1ae020ef          	jal	ra,800042a4 <__fixsfsi>
    800020fa:	87aa                	mv	a5,a0
    800020fc:	2781                	sext.w	a5,a5
    800020fe:	853e                	mv	a0,a5
    80002100:	210020ef          	jal	ra,80004310 <__floatsisf>
    80002104:	87aa                	mv	a5,a0
    80002106:	85be                	mv	a1,a5
    80002108:	fe842503          	lw	a0,-24(s0)
    8000210c:	63b010ef          	jal	ra,80003f46 <__subsf3>
    80002110:	87aa                	mv	a5,a0
    80002112:	873e                	mv	a4,a5
    80002114:	00003797          	auipc	a5,0x3
    80002118:	64c78793          	addi	a5,a5,1612 # 80005760 <__rodata_start+0x958>
    8000211c:	438c                	lw	a1,0(a5)
    8000211e:	853a                	mv	a0,a4
    80002120:	331010ef          	jal	ra,80003c50 <__gesf2>
    80002124:	87aa                	mv	a5,a0
    80002126:	00f05d63          	blez	a5,80002140 <set_baud_rate+0xaa>
    8000212a:	fe842503          	lw	a0,-24(s0)
    8000212e:	176020ef          	jal	ra,800042a4 <__fixsfsi>
    80002132:	87aa                	mv	a5,a0
    80002134:	2781                	sext.w	a5,a5
    80002136:	2785                	addiw	a5,a5,1
    80002138:	2781                	sext.w	a5,a5
    8000213a:	fef42623          	sw	a5,-20(s0)
    8000213e:	a809                	j	80002150 <set_baud_rate+0xba>
    80002140:	fe842503          	lw	a0,-24(s0)
    80002144:	160020ef          	jal	ra,800042a4 <__fixsfsi>
    80002148:	87aa                	mv	a5,a0
    8000214a:	2781                	sext.w	a5,a5
    8000214c:	fef42623          	sw	a5,-20(s0)
    80002150:	fec42783          	lw	a5,-20(s0)
    80002154:	03079713          	slli	a4,a5,0x30
    80002158:	9341                	srli	a4,a4,0x30
    8000215a:	fd843783          	ld	a5,-40(s0)
    8000215e:	00e79023          	sh	a4,0(a5)
    80002162:	0001                	nop
    80002164:	70a2                	ld	ra,40(sp)
    80002166:	7402                	ld	s0,32(sp)
    80002168:	6145                	addi	sp,sp,48
    8000216a:	8082                	ret

000000008000216c <enable_uart_interrupts>:
    8000216c:	1101                	addi	sp,sp,-32
    8000216e:	ec22                	sd	s0,24(sp)
    80002170:	1000                	addi	s0,sp,32
    80002172:	fea43423          	sd	a0,-24(s0)
    80002176:	87ae                	mv	a5,a1
    80002178:	fef403a3          	sb	a5,-25(s0)
    8000217c:	fe843783          	ld	a5,-24(s0)
    80002180:	fe744703          	lbu	a4,-25(s0)
    80002184:	00e78c23          	sb	a4,24(a5)
    80002188:	0001                	nop
    8000218a:	6462                	ld	s0,24(sp)
    8000218c:	6105                	addi	sp,sp,32
    8000218e:	8082                	ret

0000000080002190 <write_uart_character>:
    80002190:	1101                	addi	sp,sp,-32
    80002192:	ec22                	sd	s0,24(sp)
    80002194:	1000                	addi	s0,sp,32
    80002196:	fea43423          	sd	a0,-24(s0)
    8000219a:	87ae                	mv	a5,a1
    8000219c:	fef403a3          	sb	a5,-25(s0)
    800021a0:	0001                	nop
    800021a2:	fe843783          	ld	a5,-24(s0)
    800021a6:	00c7c783          	lbu	a5,12(a5)
    800021aa:	2781                	sext.w	a5,a5
    800021ac:	8b89                	andi	a5,a5,2
    800021ae:	2781                	sext.w	a5,a5
    800021b0:	fbed                	bnez	a5,800021a2 <write_uart_character+0x12>
    800021b2:	fe744783          	lbu	a5,-25(s0)
    800021b6:	0007871b          	sext.w	a4,a5
    800021ba:	fe843783          	ld	a5,-24(s0)
    800021be:	c3d8                	sw	a4,4(a5)
    800021c0:	4781                	li	a5,0
    800021c2:	853e                	mv	a0,a5
    800021c4:	6462                	ld	s0,24(sp)
    800021c6:	6105                	addi	sp,sp,32
    800021c8:	8082                	ret

00000000800021ca <write_uart_string>:
    800021ca:	7179                	addi	sp,sp,-48
    800021cc:	f406                	sd	ra,40(sp)
    800021ce:	f022                	sd	s0,32(sp)
    800021d0:	1800                	addi	s0,sp,48
    800021d2:	fca43c23          	sd	a0,-40(s0)
    800021d6:	fcb43823          	sd	a1,-48(s0)
    800021da:	fe042623          	sw	zero,-20(s0)
    800021de:	fec42783          	lw	a5,-20(s0)
    800021e2:	0017871b          	addiw	a4,a5,1
    800021e6:	fee42623          	sw	a4,-20(s0)
    800021ea:	1782                	slli	a5,a5,0x20
    800021ec:	9381                	srli	a5,a5,0x20
    800021ee:	fd043703          	ld	a4,-48(s0)
    800021f2:	97ba                	add	a5,a5,a4
    800021f4:	0007c783          	lbu	a5,0(a5)
    800021f8:	fef405a3          	sb	a5,-21(s0)
    800021fc:	feb44783          	lbu	a5,-21(s0)
    80002200:	85be                	mv	a1,a5
    80002202:	fd843503          	ld	a0,-40(s0)
    80002206:	f8bff0ef          	jal	ra,80002190 <write_uart_character>
    8000220a:	feb44783          	lbu	a5,-21(s0)
    8000220e:	0ff7f793          	andi	a5,a5,255
    80002212:	f7f1                	bnez	a5,800021de <write_uart_string+0x14>
    80002214:	4781                	li	a5,0
    80002216:	853e                	mv	a0,a5
    80002218:	70a2                	ld	ra,40(sp)
    8000221a:	7402                	ld	s0,32(sp)
    8000221c:	6145                	addi	sp,sp,48
    8000221e:	8082                	ret

0000000080002220 <read_uart_character>:
    80002220:	7179                	addi	sp,sp,-48
    80002222:	f422                	sd	s0,40(sp)
    80002224:	1800                	addi	s0,sp,48
    80002226:	fca43c23          	sd	a0,-40(s0)
    8000222a:	fcb43823          	sd	a1,-48(s0)
    8000222e:	fe0407a3          	sb	zero,-17(s0)
    80002232:	0001                	nop
    80002234:	fd843783          	ld	a5,-40(s0)
    80002238:	00c7c783          	lbu	a5,12(a5)
    8000223c:	2781                	sext.w	a5,a5
    8000223e:	8b91                	andi	a5,a5,4
    80002240:	2781                	sext.w	a5,a5
    80002242:	dbed                	beqz	a5,80002234 <read_uart_character+0x14>
    80002244:	fd843783          	ld	a5,-40(s0)
    80002248:	479c                	lw	a5,8(a5)
    8000224a:	fef407a3          	sb	a5,-17(s0)
    8000224e:	fd043783          	ld	a5,-48(s0)
    80002252:	fef44703          	lbu	a4,-17(s0)
    80002256:	00e78023          	sb	a4,0(a5)
    8000225a:	4785                	li	a5,1
    8000225c:	853e                	mv	a0,a5
    8000225e:	7422                	ld	s0,40(sp)
    80002260:	6145                	addi	sp,sp,48
    80002262:	8082                	ret

0000000080002264 <read_uart_string>:
    80002264:	7179                	addi	sp,sp,-48
    80002266:	f406                	sd	ra,40(sp)
    80002268:	f022                	sd	s0,32(sp)
    8000226a:	1800                	addi	s0,sp,48
    8000226c:	fca43c23          	sd	a0,-40(s0)
    80002270:	fcb43823          	sd	a1,-48(s0)
    80002274:	fe042623          	sw	zero,-20(s0)
    80002278:	fe0405a3          	sb	zero,-21(s0)
    8000227c:	0001                	nop
    8000227e:	fd843783          	ld	a5,-40(s0)
    80002282:	00c7c783          	lbu	a5,12(a5)
    80002286:	2781                	sext.w	a5,a5
    80002288:	8b91                	andi	a5,a5,4
    8000228a:	2781                	sext.w	a5,a5
    8000228c:	dbed                	beqz	a5,8000227e <read_uart_string+0x1a>
    8000228e:	fd843783          	ld	a5,-40(s0)
    80002292:	479c                	lw	a5,8(a5)
    80002294:	fef405a3          	sb	a5,-21(s0)
    80002298:	fec42783          	lw	a5,-20(s0)
    8000229c:	0017871b          	addiw	a4,a5,1
    800022a0:	fee42623          	sw	a4,-20(s0)
    800022a4:	1782                	slli	a5,a5,0x20
    800022a6:	9381                	srli	a5,a5,0x20
    800022a8:	fd043703          	ld	a4,-48(s0)
    800022ac:	97ba                	add	a5,a5,a4
    800022ae:	feb44703          	lbu	a4,-21(s0)
    800022b2:	00e78023          	sb	a4,0(a5)
    800022b6:	feb44783          	lbu	a5,-21(s0)
    800022ba:	2781                	sext.w	a5,a5
    800022bc:	853e                	mv	a0,a5
    800022be:	d9fff0ef          	jal	ra,8000205c <putchar>
    800022c2:	feb44783          	lbu	a5,-21(s0)
    800022c6:	0ff7f713          	andi	a4,a5,255
    800022ca:	47b5                	li	a5,13
    800022cc:	faf718e3          	bne	a4,a5,8000227c <read_uart_string+0x18>
    800022d0:	fec42783          	lw	a5,-20(s0)
    800022d4:	0017871b          	addiw	a4,a5,1
    800022d8:	fee42623          	sw	a4,-20(s0)
    800022dc:	1782                	slli	a5,a5,0x20
    800022de:	9381                	srli	a5,a5,0x20
    800022e0:	fd043703          	ld	a4,-48(s0)
    800022e4:	97ba                	add	a5,a5,a4
    800022e6:	4729                	li	a4,10
    800022e8:	00e78023          	sb	a4,0(a5)
    800022ec:	fec42783          	lw	a5,-20(s0)
    800022f0:	0017871b          	addiw	a4,a5,1
    800022f4:	fee42623          	sw	a4,-20(s0)
    800022f8:	1782                	slli	a5,a5,0x20
    800022fa:	9381                	srli	a5,a5,0x20
    800022fc:	fd043703          	ld	a4,-48(s0)
    80002300:	97ba                	add	a5,a5,a4
    80002302:	00078023          	sb	zero,0(a5)
    80002306:	fec42783          	lw	a5,-20(s0)
    8000230a:	0ff7f793          	andi	a5,a5,255
    8000230e:	853e                	mv	a0,a5
    80002310:	70a2                	ld	ra,40(sp)
    80002312:	7402                	ld	s0,32(sp)
    80002314:	6145                	addi	sp,sp,48
    80002316:	8082                	ret

0000000080002318 <flush_uart>:
    80002318:	7179                	addi	sp,sp,-48
    8000231a:	f422                	sd	s0,40(sp)
    8000231c:	1800                	addi	s0,sp,48
    8000231e:	fca43c23          	sd	a0,-40(s0)
    80002322:	a031                	j	8000232e <flush_uart+0x16>
    80002324:	fd843783          	ld	a5,-40(s0)
    80002328:	479c                	lw	a5,8(a5)
    8000232a:	fef407a3          	sb	a5,-17(s0)
    8000232e:	fd843783          	ld	a5,-40(s0)
    80002332:	00c7c783          	lbu	a5,12(a5)
    80002336:	2781                	sext.w	a5,a5
    80002338:	8b91                	andi	a5,a5,4
    8000233a:	2781                	sext.w	a5,a5
    8000233c:	f7e5                	bnez	a5,80002324 <flush_uart+0xc>
    8000233e:	0001                	nop
    80002340:	0001                	nop
    80002342:	7422                	ld	s0,40(sp)
    80002344:	6145                	addi	sp,sp,48
    80002346:	8082                	ret

0000000080002348 <uart0_isr>:
    80002348:	1101                	addi	sp,sp,-32
    8000234a:	ec06                	sd	ra,24(sp)
    8000234c:	e822                	sd	s0,16(sp)
    8000234e:	1000                	addi	s0,sp,32
    80002350:	fe042623          	sw	zero,-20(s0)
    80002354:	ae018793          	addi	a5,gp,-1312 # 80006458 <uart_instance>
    80002358:	639c                	ld	a5,0(a5)
    8000235a:	00c7c783          	lbu	a5,12(a5)
    8000235e:	0ff7f793          	andi	a5,a5,255
    80002362:	2781                	sext.w	a5,a5
    80002364:	1007f793          	andi	a5,a5,256
    80002368:	2781                	sext.w	a5,a5
    8000236a:	cbb1                	beqz	a5,800023be <uart0_isr+0x76>
    8000236c:	a82d                	j	800023a6 <uart0_isr+0x5e>
    8000236e:	ae018793          	addi	a5,gp,-1312 # 80006458 <uart_instance>
    80002372:	639c                	ld	a5,0(a5)
    80002374:	479c                	lw	a5,8(a5)
    80002376:	fef42623          	sw	a5,-20(s0)
    8000237a:	85018793          	addi	a5,gp,-1968 # 800061c8 <uart0_rcv_isr_count>
    8000237e:	439c                	lw	a5,0(a5)
    80002380:	2781                	sext.w	a5,a5
    80002382:	0017871b          	addiw	a4,a5,1
    80002386:	0007069b          	sext.w	a3,a4
    8000238a:	85018713          	addi	a4,gp,-1968 # 800061c8 <uart0_rcv_isr_count>
    8000238e:	c314                	sw	a3,0(a4)
    80002390:	fec42703          	lw	a4,-20(s0)
    80002394:	0ff77713          	andi	a4,a4,255
    80002398:	8a818693          	addi	a3,gp,-1880 # 80006220 <u0_rcv_char>
    8000239c:	1782                	slli	a5,a5,0x20
    8000239e:	9381                	srli	a5,a5,0x20
    800023a0:	97b6                	add	a5,a5,a3
    800023a2:	00e78023          	sb	a4,0(a5)
    800023a6:	ae018793          	addi	a5,gp,-1312 # 80006458 <uart_instance>
    800023aa:	639c                	ld	a5,0(a5)
    800023ac:	00c7c783          	lbu	a5,12(a5)
    800023b0:	0ff7f793          	andi	a5,a5,255
    800023b4:	2781                	sext.w	a5,a5
    800023b6:	8b91                	andi	a5,a5,4
    800023b8:	2781                	sext.w	a5,a5
    800023ba:	fbd5                	bnez	a5,8000236e <uart0_isr+0x26>
    800023bc:	a211                	j	800024c0 <uart0_isr+0x178>
    800023be:	ae018793          	addi	a5,gp,-1312 # 80006458 <uart_instance>
    800023c2:	639c                	ld	a5,0(a5)
    800023c4:	00c7c783          	lbu	a5,12(a5)
    800023c8:	0ff7f793          	andi	a5,a5,255
    800023cc:	2781                	sext.w	a5,a5
    800023ce:	8ba1                	andi	a5,a5,8
    800023d0:	2781                	sext.w	a5,a5
    800023d2:	c3c5                	beqz	a5,80002472 <uart0_isr+0x12a>
    800023d4:	45c1                	li	a1,16
    800023d6:	000407b7          	lui	a5,0x40
    800023da:	10078513          	addi	a0,a5,256 # 40100 <_tbss_end+0x40100>
    800023de:	c14ff0ef          	jal	ra,800017f2 <write_word>
    800023e2:	000407b7          	lui	a5,0x40
    800023e6:	10878513          	addi	a0,a5,264 # 40108 <_tbss_end+0x40108>
    800023ea:	bd0ff0ef          	jal	ra,800017ba <read_word>
    800023ee:	87aa                	mv	a5,a0
    800023f0:	0107e793          	ori	a5,a5,16
    800023f4:	85be                	mv	a1,a5
    800023f6:	000407b7          	lui	a5,0x40
    800023fa:	10878513          	addi	a0,a5,264 # 40108 <_tbss_end+0x40108>
    800023fe:	bf4ff0ef          	jal	ra,800017f2 <write_word>
    80002402:	a82d                	j	8000243c <uart0_isr+0xf4>
    80002404:	ae018793          	addi	a5,gp,-1312 # 80006458 <uart_instance>
    80002408:	639c                	ld	a5,0(a5)
    8000240a:	479c                	lw	a5,8(a5)
    8000240c:	fef42623          	sw	a5,-20(s0)
    80002410:	85018793          	addi	a5,gp,-1968 # 800061c8 <uart0_rcv_isr_count>
    80002414:	439c                	lw	a5,0(a5)
    80002416:	2781                	sext.w	a5,a5
    80002418:	0017871b          	addiw	a4,a5,1
    8000241c:	0007069b          	sext.w	a3,a4
    80002420:	85018713          	addi	a4,gp,-1968 # 800061c8 <uart0_rcv_isr_count>
    80002424:	c314                	sw	a3,0(a4)
    80002426:	fec42703          	lw	a4,-20(s0)
    8000242a:	0ff77713          	andi	a4,a4,255
    8000242e:	8a818693          	addi	a3,gp,-1880 # 80006220 <u0_rcv_char>
    80002432:	1782                	slli	a5,a5,0x20
    80002434:	9381                	srli	a5,a5,0x20
    80002436:	97b6                	add	a5,a5,a3
    80002438:	00e78023          	sb	a4,0(a5)
    8000243c:	ae018793          	addi	a5,gp,-1312 # 80006458 <uart_instance>
    80002440:	639c                	ld	a5,0(a5)
    80002442:	00c7c783          	lbu	a5,12(a5)
    80002446:	0ff7f793          	andi	a5,a5,255
    8000244a:	2781                	sext.w	a5,a5
    8000244c:	8b91                	andi	a5,a5,4
    8000244e:	2781                	sext.w	a5,a5
    80002450:	fbd5                	bnez	a5,80002404 <uart0_isr+0xbc>
    80002452:	000407b7          	lui	a5,0x40
    80002456:	10878513          	addi	a0,a5,264 # 40108 <_tbss_end+0x40108>
    8000245a:	b60ff0ef          	jal	ra,800017ba <read_word>
    8000245e:	87aa                	mv	a5,a0
    80002460:	9bbd                	andi	a5,a5,-17
    80002462:	85be                	mv	a1,a5
    80002464:	000407b7          	lui	a5,0x40
    80002468:	10878513          	addi	a0,a5,264 # 40108 <_tbss_end+0x40108>
    8000246c:	b86ff0ef          	jal	ra,800017f2 <write_word>
    80002470:	a881                	j	800024c0 <uart0_isr+0x178>
    80002472:	ae018793          	addi	a5,gp,-1312 # 80006458 <uart_instance>
    80002476:	639c                	ld	a5,0(a5)
    80002478:	00c7c783          	lbu	a5,12(a5)
    8000247c:	0ff7f793          	andi	a5,a5,255
    80002480:	2781                	sext.w	a5,a5
    80002482:	8b91                	andi	a5,a5,4
    80002484:	2781                	sext.w	a5,a5
    80002486:	cf8d                	beqz	a5,800024c0 <uart0_isr+0x178>
    80002488:	ae018793          	addi	a5,gp,-1312 # 80006458 <uart_instance>
    8000248c:	639c                	ld	a5,0(a5)
    8000248e:	479c                	lw	a5,8(a5)
    80002490:	fef42623          	sw	a5,-20(s0)
    80002494:	85018793          	addi	a5,gp,-1968 # 800061c8 <uart0_rcv_isr_count>
    80002498:	439c                	lw	a5,0(a5)
    8000249a:	2781                	sext.w	a5,a5
    8000249c:	0017871b          	addiw	a4,a5,1
    800024a0:	0007069b          	sext.w	a3,a4
    800024a4:	85018713          	addi	a4,gp,-1968 # 800061c8 <uart0_rcv_isr_count>
    800024a8:	c314                	sw	a3,0(a4)
    800024aa:	fec42703          	lw	a4,-20(s0)
    800024ae:	0ff77713          	andi	a4,a4,255
    800024b2:	8a818693          	addi	a3,gp,-1880 # 80006220 <u0_rcv_char>
    800024b6:	1782                	slli	a5,a5,0x20
    800024b8:	9381                	srli	a5,a5,0x20
    800024ba:	97b6                	add	a5,a5,a3
    800024bc:	00e78023          	sb	a4,0(a5)
    800024c0:	4781                	li	a5,0
    800024c2:	853e                	mv	a0,a5
    800024c4:	60e2                	ld	ra,24(sp)
    800024c6:	6442                	ld	s0,16(sp)
    800024c8:	6105                	addi	sp,sp,32
    800024ca:	8082                	ret

00000000800024cc <uart1_isr>:
    800024cc:	1101                	addi	sp,sp,-32
    800024ce:	ec06                	sd	ra,24(sp)
    800024d0:	e822                	sd	s0,16(sp)
    800024d2:	1000                	addi	s0,sp,32
    800024d4:	fe042623          	sw	zero,-20(s0)
    800024d8:	ae018793          	addi	a5,gp,-1312 # 80006458 <uart_instance>
    800024dc:	679c                	ld	a5,8(a5)
    800024de:	00c7c783          	lbu	a5,12(a5)
    800024e2:	0ff7f793          	andi	a5,a5,255
    800024e6:	2781                	sext.w	a5,a5
    800024e8:	1007f793          	andi	a5,a5,256
    800024ec:	2781                	sext.w	a5,a5
    800024ee:	cbb1                	beqz	a5,80002542 <uart1_isr+0x76>
    800024f0:	a82d                	j	8000252a <uart1_isr+0x5e>
    800024f2:	ae018793          	addi	a5,gp,-1312 # 80006458 <uart_instance>
    800024f6:	679c                	ld	a5,8(a5)
    800024f8:	479c                	lw	a5,8(a5)
    800024fa:	fef42623          	sw	a5,-20(s0)
    800024fe:	85818793          	addi	a5,gp,-1960 # 800061d0 <uart1_rcv_isr_count>
    80002502:	439c                	lw	a5,0(a5)
    80002504:	2781                	sext.w	a5,a5
    80002506:	0017871b          	addiw	a4,a5,1
    8000250a:	0007069b          	sext.w	a3,a4
    8000250e:	85818713          	addi	a4,gp,-1960 # 800061d0 <uart1_rcv_isr_count>
    80002512:	c314                	sw	a3,0(a4)
    80002514:	fec42703          	lw	a4,-20(s0)
    80002518:	0ff77713          	andi	a4,a4,255
    8000251c:	91018693          	addi	a3,gp,-1776 # 80006288 <u1_rcv_char>
    80002520:	1782                	slli	a5,a5,0x20
    80002522:	9381                	srli	a5,a5,0x20
    80002524:	97b6                	add	a5,a5,a3
    80002526:	00e78023          	sb	a4,0(a5)
    8000252a:	ae018793          	addi	a5,gp,-1312 # 80006458 <uart_instance>
    8000252e:	679c                	ld	a5,8(a5)
    80002530:	00c7c783          	lbu	a5,12(a5)
    80002534:	0ff7f793          	andi	a5,a5,255
    80002538:	2781                	sext.w	a5,a5
    8000253a:	8b91                	andi	a5,a5,4
    8000253c:	2781                	sext.w	a5,a5
    8000253e:	fbd5                	bnez	a5,800024f2 <uart1_isr+0x26>
    80002540:	a211                	j	80002644 <uart1_isr+0x178>
    80002542:	ae018793          	addi	a5,gp,-1312 # 80006458 <uart_instance>
    80002546:	679c                	ld	a5,8(a5)
    80002548:	00c7c783          	lbu	a5,12(a5)
    8000254c:	0ff7f793          	andi	a5,a5,255
    80002550:	2781                	sext.w	a5,a5
    80002552:	8ba1                	andi	a5,a5,8
    80002554:	2781                	sext.w	a5,a5
    80002556:	c3c5                	beqz	a5,800025f6 <uart1_isr+0x12a>
    80002558:	45c1                	li	a1,16
    8000255a:	000407b7          	lui	a5,0x40
    8000255e:	10078513          	addi	a0,a5,256 # 40100 <_tbss_end+0x40100>
    80002562:	a90ff0ef          	jal	ra,800017f2 <write_word>
    80002566:	000407b7          	lui	a5,0x40
    8000256a:	10878513          	addi	a0,a5,264 # 40108 <_tbss_end+0x40108>
    8000256e:	a4cff0ef          	jal	ra,800017ba <read_word>
    80002572:	87aa                	mv	a5,a0
    80002574:	0107e793          	ori	a5,a5,16
    80002578:	85be                	mv	a1,a5
    8000257a:	000407b7          	lui	a5,0x40
    8000257e:	10878513          	addi	a0,a5,264 # 40108 <_tbss_end+0x40108>
    80002582:	a70ff0ef          	jal	ra,800017f2 <write_word>
    80002586:	a82d                	j	800025c0 <uart1_isr+0xf4>
    80002588:	ae018793          	addi	a5,gp,-1312 # 80006458 <uart_instance>
    8000258c:	679c                	ld	a5,8(a5)
    8000258e:	479c                	lw	a5,8(a5)
    80002590:	fef42623          	sw	a5,-20(s0)
    80002594:	85818793          	addi	a5,gp,-1960 # 800061d0 <uart1_rcv_isr_count>
    80002598:	439c                	lw	a5,0(a5)
    8000259a:	2781                	sext.w	a5,a5
    8000259c:	0017871b          	addiw	a4,a5,1
    800025a0:	0007069b          	sext.w	a3,a4
    800025a4:	85818713          	addi	a4,gp,-1960 # 800061d0 <uart1_rcv_isr_count>
    800025a8:	c314                	sw	a3,0(a4)
    800025aa:	fec42703          	lw	a4,-20(s0)
    800025ae:	0ff77713          	andi	a4,a4,255
    800025b2:	91018693          	addi	a3,gp,-1776 # 80006288 <u1_rcv_char>
    800025b6:	1782                	slli	a5,a5,0x20
    800025b8:	9381                	srli	a5,a5,0x20
    800025ba:	97b6                	add	a5,a5,a3
    800025bc:	00e78023          	sb	a4,0(a5)
    800025c0:	ae018793          	addi	a5,gp,-1312 # 80006458 <uart_instance>
    800025c4:	679c                	ld	a5,8(a5)
    800025c6:	00c7c783          	lbu	a5,12(a5)
    800025ca:	0ff7f793          	andi	a5,a5,255
    800025ce:	2781                	sext.w	a5,a5
    800025d0:	8b91                	andi	a5,a5,4
    800025d2:	2781                	sext.w	a5,a5
    800025d4:	fbd5                	bnez	a5,80002588 <uart1_isr+0xbc>
    800025d6:	000407b7          	lui	a5,0x40
    800025da:	10878513          	addi	a0,a5,264 # 40108 <_tbss_end+0x40108>
    800025de:	9dcff0ef          	jal	ra,800017ba <read_word>
    800025e2:	87aa                	mv	a5,a0
    800025e4:	9bbd                	andi	a5,a5,-17
    800025e6:	85be                	mv	a1,a5
    800025e8:	000407b7          	lui	a5,0x40
    800025ec:	10878513          	addi	a0,a5,264 # 40108 <_tbss_end+0x40108>
    800025f0:	a02ff0ef          	jal	ra,800017f2 <write_word>
    800025f4:	a881                	j	80002644 <uart1_isr+0x178>
    800025f6:	ae018793          	addi	a5,gp,-1312 # 80006458 <uart_instance>
    800025fa:	679c                	ld	a5,8(a5)
    800025fc:	00c7c783          	lbu	a5,12(a5)
    80002600:	0ff7f793          	andi	a5,a5,255
    80002604:	2781                	sext.w	a5,a5
    80002606:	8b91                	andi	a5,a5,4
    80002608:	2781                	sext.w	a5,a5
    8000260a:	cf8d                	beqz	a5,80002644 <uart1_isr+0x178>
    8000260c:	ae018793          	addi	a5,gp,-1312 # 80006458 <uart_instance>
    80002610:	679c                	ld	a5,8(a5)
    80002612:	479c                	lw	a5,8(a5)
    80002614:	fef42623          	sw	a5,-20(s0)
    80002618:	85818793          	addi	a5,gp,-1960 # 800061d0 <uart1_rcv_isr_count>
    8000261c:	439c                	lw	a5,0(a5)
    8000261e:	2781                	sext.w	a5,a5
    80002620:	0017871b          	addiw	a4,a5,1
    80002624:	0007069b          	sext.w	a3,a4
    80002628:	85818713          	addi	a4,gp,-1960 # 800061d0 <uart1_rcv_isr_count>
    8000262c:	c314                	sw	a3,0(a4)
    8000262e:	fec42703          	lw	a4,-20(s0)
    80002632:	0ff77713          	andi	a4,a4,255
    80002636:	91018693          	addi	a3,gp,-1776 # 80006288 <u1_rcv_char>
    8000263a:	1782                	slli	a5,a5,0x20
    8000263c:	9381                	srli	a5,a5,0x20
    8000263e:	97b6                	add	a5,a5,a3
    80002640:	00e78023          	sb	a4,0(a5)
    80002644:	4781                	li	a5,0
    80002646:	853e                	mv	a0,a5
    80002648:	60e2                	ld	ra,24(sp)
    8000264a:	6442                	ld	s0,16(sp)
    8000264c:	6105                	addi	sp,sp,32
    8000264e:	8082                	ret

0000000080002650 <uart2_isr>:
    80002650:	1101                	addi	sp,sp,-32
    80002652:	ec06                	sd	ra,24(sp)
    80002654:	e822                	sd	s0,16(sp)
    80002656:	1000                	addi	s0,sp,32
    80002658:	fe042623          	sw	zero,-20(s0)
    8000265c:	ae018793          	addi	a5,gp,-1312 # 80006458 <uart_instance>
    80002660:	6b9c                	ld	a5,16(a5)
    80002662:	00c7c783          	lbu	a5,12(a5)
    80002666:	0ff7f793          	andi	a5,a5,255
    8000266a:	2781                	sext.w	a5,a5
    8000266c:	1007f793          	andi	a5,a5,256
    80002670:	2781                	sext.w	a5,a5
    80002672:	cbb1                	beqz	a5,800026c6 <uart2_isr+0x76>
    80002674:	a82d                	j	800026ae <uart2_isr+0x5e>
    80002676:	ae018793          	addi	a5,gp,-1312 # 80006458 <uart_instance>
    8000267a:	6b9c                	ld	a5,16(a5)
    8000267c:	479c                	lw	a5,8(a5)
    8000267e:	fef42623          	sw	a5,-20(s0)
    80002682:	86018793          	addi	a5,gp,-1952 # 800061d8 <uart2_rcv_isr_count>
    80002686:	439c                	lw	a5,0(a5)
    80002688:	2781                	sext.w	a5,a5
    8000268a:	0017871b          	addiw	a4,a5,1
    8000268e:	0007069b          	sext.w	a3,a4
    80002692:	86018713          	addi	a4,gp,-1952 # 800061d8 <uart2_rcv_isr_count>
    80002696:	c314                	sw	a3,0(a4)
    80002698:	fec42703          	lw	a4,-20(s0)
    8000269c:	0ff77713          	andi	a4,a4,255
    800026a0:	97818693          	addi	a3,gp,-1672 # 800062f0 <u2_rcv_char>
    800026a4:	1782                	slli	a5,a5,0x20
    800026a6:	9381                	srli	a5,a5,0x20
    800026a8:	97b6                	add	a5,a5,a3
    800026aa:	00e78023          	sb	a4,0(a5)
    800026ae:	ae018793          	addi	a5,gp,-1312 # 80006458 <uart_instance>
    800026b2:	6b9c                	ld	a5,16(a5)
    800026b4:	00c7c783          	lbu	a5,12(a5)
    800026b8:	0ff7f793          	andi	a5,a5,255
    800026bc:	2781                	sext.w	a5,a5
    800026be:	8b91                	andi	a5,a5,4
    800026c0:	2781                	sext.w	a5,a5
    800026c2:	fbd5                	bnez	a5,80002676 <uart2_isr+0x26>
    800026c4:	a211                	j	800027c8 <uart2_isr+0x178>
    800026c6:	ae018793          	addi	a5,gp,-1312 # 80006458 <uart_instance>
    800026ca:	6b9c                	ld	a5,16(a5)
    800026cc:	00c7c783          	lbu	a5,12(a5)
    800026d0:	0ff7f793          	andi	a5,a5,255
    800026d4:	2781                	sext.w	a5,a5
    800026d6:	8ba1                	andi	a5,a5,8
    800026d8:	2781                	sext.w	a5,a5
    800026da:	c3c5                	beqz	a5,8000277a <uart2_isr+0x12a>
    800026dc:	45c1                	li	a1,16
    800026de:	000407b7          	lui	a5,0x40
    800026e2:	10078513          	addi	a0,a5,256 # 40100 <_tbss_end+0x40100>
    800026e6:	90cff0ef          	jal	ra,800017f2 <write_word>
    800026ea:	000407b7          	lui	a5,0x40
    800026ee:	10878513          	addi	a0,a5,264 # 40108 <_tbss_end+0x40108>
    800026f2:	8c8ff0ef          	jal	ra,800017ba <read_word>
    800026f6:	87aa                	mv	a5,a0
    800026f8:	0107e793          	ori	a5,a5,16
    800026fc:	85be                	mv	a1,a5
    800026fe:	000407b7          	lui	a5,0x40
    80002702:	10878513          	addi	a0,a5,264 # 40108 <_tbss_end+0x40108>
    80002706:	8ecff0ef          	jal	ra,800017f2 <write_word>
    8000270a:	a82d                	j	80002744 <uart2_isr+0xf4>
    8000270c:	ae018793          	addi	a5,gp,-1312 # 80006458 <uart_instance>
    80002710:	6b9c                	ld	a5,16(a5)
    80002712:	479c                	lw	a5,8(a5)
    80002714:	fef42623          	sw	a5,-20(s0)
    80002718:	86018793          	addi	a5,gp,-1952 # 800061d8 <uart2_rcv_isr_count>
    8000271c:	439c                	lw	a5,0(a5)
    8000271e:	2781                	sext.w	a5,a5
    80002720:	0017871b          	addiw	a4,a5,1
    80002724:	0007069b          	sext.w	a3,a4
    80002728:	86018713          	addi	a4,gp,-1952 # 800061d8 <uart2_rcv_isr_count>
    8000272c:	c314                	sw	a3,0(a4)
    8000272e:	fec42703          	lw	a4,-20(s0)
    80002732:	0ff77713          	andi	a4,a4,255
    80002736:	97818693          	addi	a3,gp,-1672 # 800062f0 <u2_rcv_char>
    8000273a:	1782                	slli	a5,a5,0x20
    8000273c:	9381                	srli	a5,a5,0x20
    8000273e:	97b6                	add	a5,a5,a3
    80002740:	00e78023          	sb	a4,0(a5)
    80002744:	ae018793          	addi	a5,gp,-1312 # 80006458 <uart_instance>
    80002748:	6b9c                	ld	a5,16(a5)
    8000274a:	00c7c783          	lbu	a5,12(a5)
    8000274e:	0ff7f793          	andi	a5,a5,255
    80002752:	2781                	sext.w	a5,a5
    80002754:	8b91                	andi	a5,a5,4
    80002756:	2781                	sext.w	a5,a5
    80002758:	fbd5                	bnez	a5,8000270c <uart2_isr+0xbc>
    8000275a:	000407b7          	lui	a5,0x40
    8000275e:	10878513          	addi	a0,a5,264 # 40108 <_tbss_end+0x40108>
    80002762:	858ff0ef          	jal	ra,800017ba <read_word>
    80002766:	87aa                	mv	a5,a0
    80002768:	9bbd                	andi	a5,a5,-17
    8000276a:	85be                	mv	a1,a5
    8000276c:	000407b7          	lui	a5,0x40
    80002770:	10878513          	addi	a0,a5,264 # 40108 <_tbss_end+0x40108>
    80002774:	87eff0ef          	jal	ra,800017f2 <write_word>
    80002778:	a881                	j	800027c8 <uart2_isr+0x178>
    8000277a:	ae018793          	addi	a5,gp,-1312 # 80006458 <uart_instance>
    8000277e:	6b9c                	ld	a5,16(a5)
    80002780:	00c7c783          	lbu	a5,12(a5)
    80002784:	0ff7f793          	andi	a5,a5,255
    80002788:	2781                	sext.w	a5,a5
    8000278a:	8b91                	andi	a5,a5,4
    8000278c:	2781                	sext.w	a5,a5
    8000278e:	cf8d                	beqz	a5,800027c8 <uart2_isr+0x178>
    80002790:	ae018793          	addi	a5,gp,-1312 # 80006458 <uart_instance>
    80002794:	6b9c                	ld	a5,16(a5)
    80002796:	479c                	lw	a5,8(a5)
    80002798:	fef42623          	sw	a5,-20(s0)
    8000279c:	86018793          	addi	a5,gp,-1952 # 800061d8 <uart2_rcv_isr_count>
    800027a0:	439c                	lw	a5,0(a5)
    800027a2:	2781                	sext.w	a5,a5
    800027a4:	0017871b          	addiw	a4,a5,1
    800027a8:	0007069b          	sext.w	a3,a4
    800027ac:	86018713          	addi	a4,gp,-1952 # 800061d8 <uart2_rcv_isr_count>
    800027b0:	c314                	sw	a3,0(a4)
    800027b2:	fec42703          	lw	a4,-20(s0)
    800027b6:	0ff77713          	andi	a4,a4,255
    800027ba:	97818693          	addi	a3,gp,-1672 # 800062f0 <u2_rcv_char>
    800027be:	1782                	slli	a5,a5,0x20
    800027c0:	9381                	srli	a5,a5,0x20
    800027c2:	97b6                	add	a5,a5,a3
    800027c4:	00e78023          	sb	a4,0(a5)
    800027c8:	4781                	li	a5,0
    800027ca:	853e                	mv	a0,a5
    800027cc:	60e2                	ld	ra,24(sp)
    800027ce:	6442                	ld	s0,16(sp)
    800027d0:	6105                	addi	sp,sp,32
    800027d2:	8082                	ret

00000000800027d4 <interrupt_complete>:
    800027d4:	7179                	addi	sp,sp,-48
    800027d6:	f406                	sd	ra,40(sp)
    800027d8:	f022                	sd	s0,32(sp)
    800027da:	1800                	addi	s0,sp,48
    800027dc:	87aa                	mv	a5,a0
    800027de:	fcf42e23          	sw	a5,-36(s0)
    800027e2:	00003517          	auipc	a0,0x3
    800027e6:	f8650513          	addi	a0,a0,-122 # 80005768 <__rodata_start+0x960>
    800027ea:	9a8ff0ef          	jal	ra,80001992 <log_trace>
    800027ee:	0c2007b7          	lui	a5,0xc200
    800027f2:	0791                	addi	a5,a5,4
    800027f4:	fef43423          	sd	a5,-24(s0)
    800027f8:	fe843783          	ld	a5,-24(s0)
    800027fc:	fdc42703          	lw	a4,-36(s0)
    80002800:	c398                	sw	a4,0(a5)
    80002802:	af818713          	addi	a4,gp,-1288 # 80006470 <hart0_interrupt_matrix>
    80002806:	fdc46783          	lwu	a5,-36(s0)
    8000280a:	0792                	slli	a5,a5,0x4
    8000280c:	97ba                	add	a5,a5,a4
    8000280e:	4709                	li	a4,2
    80002810:	c798                	sw	a4,8(a5)
    80002812:	af818713          	addi	a4,gp,-1288 # 80006470 <hart0_interrupt_matrix>
    80002816:	fdc46783          	lwu	a5,-36(s0)
    8000281a:	0792                	slli	a5,a5,0x4
    8000281c:	97ba                	add	a5,a5,a4
    8000281e:	47dc                	lw	a5,12(a5)
    80002820:	2785                	addiw	a5,a5,1
    80002822:	0007871b          	sext.w	a4,a5
    80002826:	af818693          	addi	a3,gp,-1288 # 80006470 <hart0_interrupt_matrix>
    8000282a:	fdc46783          	lwu	a5,-36(s0)
    8000282e:	0792                	slli	a5,a5,0x4
    80002830:	97b6                	add	a5,a5,a3
    80002832:	c7d8                	sw	a4,12(a5)
    80002834:	af818713          	addi	a4,gp,-1288 # 80006470 <hart0_interrupt_matrix>
    80002838:	fdc46783          	lwu	a5,-36(s0)
    8000283c:	0792                	slli	a5,a5,0x4
    8000283e:	97ba                	add	a5,a5,a4
    80002840:	4798                	lw	a4,8(a5)
    80002842:	fdc42783          	lw	a5,-36(s0)
    80002846:	863a                	mv	a2,a4
    80002848:	85be                	mv	a1,a5
    8000284a:	00003517          	auipc	a0,0x3
    8000284e:	f3e50513          	addi	a0,a0,-194 # 80005788 <__rodata_start+0x980>
    80002852:	9aeff0ef          	jal	ra,80001a00 <log_debug>
    80002856:	af818713          	addi	a4,gp,-1288 # 80006470 <hart0_interrupt_matrix>
    8000285a:	fdc46783          	lwu	a5,-36(s0)
    8000285e:	0792                	slli	a5,a5,0x4
    80002860:	97ba                	add	a5,a5,a4
    80002862:	438c                	lw	a1,0(a5)
    80002864:	af818713          	addi	a4,gp,-1288 # 80006470 <hart0_interrupt_matrix>
    80002868:	fdc46783          	lwu	a5,-36(s0)
    8000286c:	0792                	slli	a5,a5,0x4
    8000286e:	97ba                	add	a5,a5,a4
    80002870:	4790                	lw	a2,8(a5)
    80002872:	af818713          	addi	a4,gp,-1288 # 80006470 <hart0_interrupt_matrix>
    80002876:	fdc46783          	lwu	a5,-36(s0)
    8000287a:	0792                	slli	a5,a5,0x4
    8000287c:	97ba                	add	a5,a5,a4
    8000287e:	43d4                	lw	a3,4(a5)
    80002880:	af818713          	addi	a4,gp,-1288 # 80006470 <hart0_interrupt_matrix>
    80002884:	fdc46783          	lwu	a5,-36(s0)
    80002888:	0792                	slli	a5,a5,0x4
    8000288a:	97ba                	add	a5,a5,a4
    8000288c:	47dc                	lw	a5,12(a5)
    8000288e:	873e                	mv	a4,a5
    80002890:	00003517          	auipc	a0,0x3
    80002894:	f2050513          	addi	a0,a0,-224 # 800057b0 <__rodata_start+0x9a8>
    80002898:	968ff0ef          	jal	ra,80001a00 <log_debug>
    8000289c:	00003517          	auipc	a0,0x3
    800028a0:	f6c50513          	addi	a0,a0,-148 # 80005808 <__rodata_start+0xa00>
    800028a4:	8eeff0ef          	jal	ra,80001992 <log_trace>
    800028a8:	0001                	nop
    800028aa:	70a2                	ld	ra,40(sp)
    800028ac:	7402                	ld	s0,32(sp)
    800028ae:	6145                	addi	sp,sp,48
    800028b0:	8082                	ret

00000000800028b2 <interrupt_claim_request>:
    800028b2:	1101                	addi	sp,sp,-32
    800028b4:	ec06                	sd	ra,24(sp)
    800028b6:	e822                	sd	s0,16(sp)
    800028b8:	1000                	addi	s0,sp,32
    800028ba:	fe043423          	sd	zero,-24(s0)
    800028be:	00003517          	auipc	a0,0x3
    800028c2:	f6a50513          	addi	a0,a0,-150 # 80005828 <__rodata_start+0xa20>
    800028c6:	8ccff0ef          	jal	ra,80001992 <log_trace>
    800028ca:	0c2007b7          	lui	a5,0xc200
    800028ce:	0791                	addi	a5,a5,4
    800028d0:	fef43423          	sd	a5,-24(s0)
    800028d4:	fe843783          	ld	a5,-24(s0)
    800028d8:	439c                	lw	a5,0(a5)
    800028da:	fef42223          	sw	a5,-28(s0)
    800028de:	fe442783          	lw	a5,-28(s0)
    800028e2:	fe843603          	ld	a2,-24(s0)
    800028e6:	85be                	mv	a1,a5
    800028e8:	00003517          	auipc	a0,0x3
    800028ec:	f6850513          	addi	a0,a0,-152 # 80005850 <__rodata_start+0xa48>
    800028f0:	910ff0ef          	jal	ra,80001a00 <log_debug>
    800028f4:	00003517          	auipc	a0,0x3
    800028f8:	f8c50513          	addi	a0,a0,-116 # 80005880 <__rodata_start+0xa78>
    800028fc:	896ff0ef          	jal	ra,80001992 <log_trace>
    80002900:	fe442783          	lw	a5,-28(s0)
    80002904:	853e                	mv	a0,a5
    80002906:	60e2                	ld	ra,24(sp)
    80002908:	6442                	ld	s0,16(sp)
    8000290a:	6105                	addi	sp,sp,32
    8000290c:	8082                	ret

000000008000290e <mach_plic_handler>:
    8000290e:	7179                	addi	sp,sp,-48
    80002910:	f406                	sd	ra,40(sp)
    80002912:	f022                	sd	s0,32(sp)
    80002914:	1800                	addi	s0,sp,48
    80002916:	fca43c23          	sd	a0,-40(s0)
    8000291a:	fcb43823          	sd	a1,-48(s0)
    8000291e:	00003517          	auipc	a0,0x3
    80002922:	f8250513          	addi	a0,a0,-126 # 800058a0 <__rodata_start+0xa98>
    80002926:	86cff0ef          	jal	ra,80001992 <log_trace>
    8000292a:	f89ff0ef          	jal	ra,800028b2 <interrupt_claim_request>
    8000292e:	87aa                	mv	a5,a0
    80002930:	fef42623          	sw	a5,-20(s0)
    80002934:	fec42783          	lw	a5,-20(s0)
    80002938:	85be                	mv	a1,a5
    8000293a:	00003517          	auipc	a0,0x3
    8000293e:	f8650513          	addi	a0,a0,-122 # 800058c0 <__rodata_start+0xab8>
    80002942:	8beff0ef          	jal	ra,80001a00 <log_debug>
    80002946:	fec42783          	lw	a5,-20(s0)
    8000294a:	2781                	sext.w	a5,a5
    8000294c:	cb81                	beqz	a5,8000295c <mach_plic_handler+0x4e>
    8000294e:	fec42783          	lw	a5,-20(s0)
    80002952:	0007871b          	sext.w	a4,a5
    80002956:	47fd                	li	a5,31
    80002958:	00e7fb63          	bgeu	a5,a4,8000296e <mach_plic_handler+0x60>
    8000295c:	fec42783          	lw	a5,-20(s0)
    80002960:	85be                	mv	a1,a5
    80002962:	00003517          	auipc	a0,0x3
    80002966:	f7e50513          	addi	a0,a0,-130 # 800058e0 <__rodata_start+0xad8>
    8000296a:	94eff0ef          	jal	ra,80001ab8 <log_fatal>
    8000296e:	af818713          	addi	a4,gp,-1288 # 80006470 <hart0_interrupt_matrix>
    80002972:	fec46783          	lwu	a5,-20(s0)
    80002976:	0792                	slli	a5,a5,0x4
    80002978:	97ba                	add	a5,a5,a4
    8000297a:	4705                	li	a4,1
    8000297c:	c798                	sw	a4,8(a5)
    8000297e:	af818713          	addi	a4,gp,-1288 # 80006470 <hart0_interrupt_matrix>
    80002982:	fec46783          	lwu	a5,-20(s0)
    80002986:	0792                	slli	a5,a5,0x4
    80002988:	97ba                	add	a5,a5,a4
    8000298a:	4798                	lw	a4,8(a5)
    8000298c:	fec42783          	lw	a5,-20(s0)
    80002990:	863a                	mv	a2,a4
    80002992:	85be                	mv	a1,a5
    80002994:	00003517          	auipc	a0,0x3
    80002998:	df450513          	addi	a0,a0,-524 # 80005788 <__rodata_start+0x980>
    8000299c:	864ff0ef          	jal	ra,80001a00 <log_debug>
    800029a0:	ce818713          	addi	a4,gp,-792 # 80006660 <isr_table>
    800029a4:	fec46783          	lwu	a5,-20(s0)
    800029a8:	078e                	slli	a5,a5,0x3
    800029aa:	97ba                	add	a5,a5,a4
    800029ac:	6398                	ld	a4,0(a5)
    800029ae:	fec42783          	lw	a5,-20(s0)
    800029b2:	853e                	mv	a0,a5
    800029b4:	9702                	jalr	a4
    800029b6:	fec42783          	lw	a5,-20(s0)
    800029ba:	853e                	mv	a0,a5
    800029bc:	e19ff0ef          	jal	ra,800027d4 <interrupt_complete>
    800029c0:	fec42783          	lw	a5,-20(s0)
    800029c4:	85be                	mv	a1,a5
    800029c6:	00003517          	auipc	a0,0x3
    800029ca:	f5250513          	addi	a0,a0,-174 # 80005918 <__rodata_start+0xb10>
    800029ce:	832ff0ef          	jal	ra,80001a00 <log_debug>
    800029d2:	00003517          	auipc	a0,0x3
    800029d6:	f6650513          	addi	a0,a0,-154 # 80005938 <__rodata_start+0xb30>
    800029da:	fb9fe0ef          	jal	ra,80001992 <log_trace>
    800029de:	0001                	nop
    800029e0:	70a2                	ld	ra,40(sp)
    800029e2:	7402                	ld	s0,32(sp)
    800029e4:	6145                	addi	sp,sp,48
    800029e6:	8082                	ret

00000000800029e8 <isr_default>:
    800029e8:	1101                	addi	sp,sp,-32
    800029ea:	ec06                	sd	ra,24(sp)
    800029ec:	e822                	sd	s0,16(sp)
    800029ee:	1000                	addi	s0,sp,32
    800029f0:	87aa                	mv	a5,a0
    800029f2:	fef42623          	sw	a5,-20(s0)
    800029f6:	00003517          	auipc	a0,0x3
    800029fa:	f6250513          	addi	a0,a0,-158 # 80005958 <__rodata_start+0xb50>
    800029fe:	f95fe0ef          	jal	ra,80001992 <log_trace>
    80002a02:	fec42783          	lw	a5,-20(s0)
    80002a06:	85be                	mv	a1,a5
    80002a08:	00003517          	auipc	a0,0x3
    80002a0c:	f6850513          	addi	a0,a0,-152 # 80005970 <__rodata_start+0xb68>
    80002a10:	fa7fe0ef          	jal	ra,800019b6 <log_info>
    80002a14:	00003517          	auipc	a0,0x3
    80002a18:	f7c50513          	addi	a0,a0,-132 # 80005990 <__rodata_start+0xb88>
    80002a1c:	f77fe0ef          	jal	ra,80001992 <log_trace>
    80002a20:	0001                	nop
    80002a22:	60e2                	ld	ra,24(sp)
    80002a24:	6442                	ld	s0,16(sp)
    80002a26:	6105                	addi	sp,sp,32
    80002a28:	8082                	ret

0000000080002a2a <interrupt_enable>:
    80002a2a:	7139                	addi	sp,sp,-64
    80002a2c:	fc06                	sd	ra,56(sp)
    80002a2e:	f822                	sd	s0,48(sp)
    80002a30:	0080                	addi	s0,sp,64
    80002a32:	87aa                	mv	a5,a0
    80002a34:	fcf42623          	sw	a5,-52(s0)
    80002a38:	fe0407a3          	sb	zero,-17(s0)
    80002a3c:	00003517          	auipc	a0,0x3
    80002a40:	f6c50513          	addi	a0,a0,-148 # 800059a8 <__rodata_start+0xba0>
    80002a44:	f4ffe0ef          	jal	ra,80001992 <log_trace>
    80002a48:	fcc42783          	lw	a5,-52(s0)
    80002a4c:	85be                	mv	a1,a5
    80002a4e:	00003517          	auipc	a0,0x3
    80002a52:	f7a50513          	addi	a0,a0,-134 # 800059c8 <__rodata_start+0xbc0>
    80002a56:	fabfe0ef          	jal	ra,80001a00 <log_debug>
    80002a5a:	6609                	lui	a2,0x2
    80002a5c:	0c0005b7          	lui	a1,0xc000
    80002a60:	00003517          	auipc	a0,0x3
    80002a64:	f8050513          	addi	a0,a0,-128 # 800059e0 <__rodata_start+0xbd8>
    80002a68:	f99fe0ef          	jal	ra,80001a00 <log_debug>
    80002a6c:	fcc42783          	lw	a5,-52(s0)
    80002a70:	0037d79b          	srliw	a5,a5,0x3
    80002a74:	2781                	sext.w	a5,a5
    80002a76:	02079713          	slli	a4,a5,0x20
    80002a7a:	9301                	srli	a4,a4,0x20
    80002a7c:	0c0027b7          	lui	a5,0xc002
    80002a80:	97ba                	add	a5,a5,a4
    80002a82:	fef43023          	sd	a5,-32(s0)
    80002a86:	fe043783          	ld	a5,-32(s0)
    80002a8a:	0007c783          	lbu	a5,0(a5) # c002000 <_free_space+0x4008b58>
    80002a8e:	fef407a3          	sb	a5,-17(s0)
    80002a92:	fef44783          	lbu	a5,-17(s0)
    80002a96:	2781                	sext.w	a5,a5
    80002a98:	863e                	mv	a2,a5
    80002a9a:	fe043583          	ld	a1,-32(s0)
    80002a9e:	00003517          	auipc	a0,0x3
    80002aa2:	f7a50513          	addi	a0,a0,-134 # 80005a18 <__rodata_start+0xc10>
    80002aa6:	f5bfe0ef          	jal	ra,80001a00 <log_debug>
    80002aaa:	fcc42783          	lw	a5,-52(s0)
    80002aae:	8b9d                	andi	a5,a5,7
    80002ab0:	2781                	sext.w	a5,a5
    80002ab2:	4705                	li	a4,1
    80002ab4:	00f717bb          	sllw	a5,a4,a5
    80002ab8:	2781                	sext.w	a5,a5
    80002aba:	0187971b          	slliw	a4,a5,0x18
    80002abe:	4187571b          	sraiw	a4,a4,0x18
    80002ac2:	fef40783          	lb	a5,-17(s0)
    80002ac6:	8fd9                	or	a5,a5,a4
    80002ac8:	0187979b          	slliw	a5,a5,0x18
    80002acc:	4187d79b          	sraiw	a5,a5,0x18
    80002ad0:	fcf40fa3          	sb	a5,-33(s0)
    80002ad4:	fe043783          	ld	a5,-32(s0)
    80002ad8:	fdf44703          	lbu	a4,-33(s0)
    80002adc:	00e78023          	sb	a4,0(a5)
    80002ae0:	fdf44783          	lbu	a5,-33(s0)
    80002ae4:	2781                	sext.w	a5,a5
    80002ae6:	85be                	mv	a1,a5
    80002ae8:	00003517          	auipc	a0,0x3
    80002aec:	f6050513          	addi	a0,a0,-160 # 80005a48 <__rodata_start+0xc40>
    80002af0:	f11fe0ef          	jal	ra,80001a00 <log_debug>
    80002af4:	00003517          	auipc	a0,0x3
    80002af8:	f7450513          	addi	a0,a0,-140 # 80005a68 <__rodata_start+0xc60>
    80002afc:	e97fe0ef          	jal	ra,80001992 <log_trace>
    80002b00:	0001                	nop
    80002b02:	70e2                	ld	ra,56(sp)
    80002b04:	7442                	ld	s0,48(sp)
    80002b06:	6121                	addi	sp,sp,64
    80002b08:	8082                	ret

0000000080002b0a <interrupt_disable>:
    80002b0a:	7179                	addi	sp,sp,-48
    80002b0c:	f406                	sd	ra,40(sp)
    80002b0e:	f022                	sd	s0,32(sp)
    80002b10:	1800                	addi	s0,sp,48
    80002b12:	87aa                	mv	a5,a0
    80002b14:	fcf42e23          	sw	a5,-36(s0)
    80002b18:	fe043423          	sd	zero,-24(s0)
    80002b1c:	fe0403a3          	sb	zero,-25(s0)
    80002b20:	00003517          	auipc	a0,0x3
    80002b24:	f6850513          	addi	a0,a0,-152 # 80005a88 <__rodata_start+0xc80>
    80002b28:	e6bfe0ef          	jal	ra,80001992 <log_trace>
    80002b2c:	fdc42783          	lw	a5,-36(s0)
    80002b30:	85be                	mv	a1,a5
    80002b32:	00003517          	auipc	a0,0x3
    80002b36:	e9650513          	addi	a0,a0,-362 # 800059c8 <__rodata_start+0xbc0>
    80002b3a:	ec7fe0ef          	jal	ra,80001a00 <log_debug>
    80002b3e:	fdc42783          	lw	a5,-36(s0)
    80002b42:	86be                	mv	a3,a5
    80002b44:	6609                	lui	a2,0x2
    80002b46:	0c0005b7          	lui	a1,0xc000
    80002b4a:	00003517          	auipc	a0,0x3
    80002b4e:	f5e50513          	addi	a0,a0,-162 # 80005aa8 <__rodata_start+0xca0>
    80002b52:	eaffe0ef          	jal	ra,80001a00 <log_debug>
    80002b56:	fdc42783          	lw	a5,-36(s0)
    80002b5a:	0037d79b          	srliw	a5,a5,0x3
    80002b5e:	2781                	sext.w	a5,a5
    80002b60:	02079713          	slli	a4,a5,0x20
    80002b64:	9301                	srli	a4,a4,0x20
    80002b66:	0c0027b7          	lui	a5,0xc002
    80002b6a:	97ba                	add	a5,a5,a4
    80002b6c:	fef43423          	sd	a5,-24(s0)
    80002b70:	fe843783          	ld	a5,-24(s0)
    80002b74:	0007c783          	lbu	a5,0(a5) # c002000 <_free_space+0x4008b58>
    80002b78:	fef403a3          	sb	a5,-25(s0)
    80002b7c:	fe744783          	lbu	a5,-25(s0)
    80002b80:	2781                	sext.w	a5,a5
    80002b82:	863e                	mv	a2,a5
    80002b84:	fe843583          	ld	a1,-24(s0)
    80002b88:	00003517          	auipc	a0,0x3
    80002b8c:	f6850513          	addi	a0,a0,-152 # 80005af0 <__rodata_start+0xce8>
    80002b90:	e71fe0ef          	jal	ra,80001a00 <log_debug>
    80002b94:	fdc42783          	lw	a5,-36(s0)
    80002b98:	8b9d                	andi	a5,a5,7
    80002b9a:	2781                	sext.w	a5,a5
    80002b9c:	4705                	li	a4,1
    80002b9e:	00f717bb          	sllw	a5,a4,a5
    80002ba2:	2781                	sext.w	a5,a5
    80002ba4:	0187979b          	slliw	a5,a5,0x18
    80002ba8:	4187d79b          	sraiw	a5,a5,0x18
    80002bac:	fff7c793          	not	a5,a5
    80002bb0:	0187971b          	slliw	a4,a5,0x18
    80002bb4:	4187571b          	sraiw	a4,a4,0x18
    80002bb8:	fe740783          	lb	a5,-25(s0)
    80002bbc:	8ff9                	and	a5,a5,a4
    80002bbe:	0187979b          	slliw	a5,a5,0x18
    80002bc2:	4187d79b          	sraiw	a5,a5,0x18
    80002bc6:	fef40323          	sb	a5,-26(s0)
    80002bca:	fe843783          	ld	a5,-24(s0)
    80002bce:	fe644703          	lbu	a4,-26(s0)
    80002bd2:	00e78023          	sb	a4,0(a5)
    80002bd6:	af818713          	addi	a4,gp,-1288 # 80006470 <hart0_interrupt_matrix>
    80002bda:	fdc46783          	lwu	a5,-36(s0)
    80002bde:	0792                	slli	a5,a5,0x4
    80002be0:	97ba                	add	a5,a5,a4
    80002be2:	0007a423          	sw	zero,8(a5)
    80002be6:	af818713          	addi	a4,gp,-1288 # 80006470 <hart0_interrupt_matrix>
    80002bea:	fdc46783          	lwu	a5,-36(s0)
    80002bee:	0792                	slli	a5,a5,0x4
    80002bf0:	97ba                	add	a5,a5,a4
    80002bf2:	4798                	lw	a4,8(a5)
    80002bf4:	fdc42783          	lw	a5,-36(s0)
    80002bf8:	863a                	mv	a2,a4
    80002bfa:	85be                	mv	a1,a5
    80002bfc:	00003517          	auipc	a0,0x3
    80002c00:	b8c50513          	addi	a0,a0,-1140 # 80005788 <__rodata_start+0x980>
    80002c04:	dfdfe0ef          	jal	ra,80001a00 <log_debug>
    80002c08:	00003517          	auipc	a0,0x3
    80002c0c:	f2050513          	addi	a0,a0,-224 # 80005b28 <__rodata_start+0xd20>
    80002c10:	d83fe0ef          	jal	ra,80001992 <log_trace>
    80002c14:	0001                	nop
    80002c16:	70a2                	ld	ra,40(sp)
    80002c18:	7402                	ld	s0,32(sp)
    80002c1a:	6145                	addi	sp,sp,48
    80002c1c:	8082                	ret

0000000080002c1e <set_interrupt_threshold>:
    80002c1e:	7179                	addi	sp,sp,-48
    80002c20:	f406                	sd	ra,40(sp)
    80002c22:	f022                	sd	s0,32(sp)
    80002c24:	1800                	addi	s0,sp,48
    80002c26:	87aa                	mv	a5,a0
    80002c28:	fcf42e23          	sw	a5,-36(s0)
    80002c2c:	00003517          	auipc	a0,0x3
    80002c30:	f1c50513          	addi	a0,a0,-228 # 80005b48 <__rodata_start+0xd40>
    80002c34:	d5ffe0ef          	jal	ra,80001992 <log_trace>
    80002c38:	fe043423          	sd	zero,-24(s0)
    80002c3c:	0c2007b7          	lui	a5,0xc200
    80002c40:	fef43423          	sd	a5,-24(s0)
    80002c44:	fe843783          	ld	a5,-24(s0)
    80002c48:	fdc42703          	lw	a4,-36(s0)
    80002c4c:	c398                	sw	a4,0(a5)
    80002c4e:	fe843783          	ld	a5,-24(s0)
    80002c52:	439c                	lw	a5,0(a5)
    80002c54:	85be                	mv	a1,a5
    80002c56:	00003517          	auipc	a0,0x3
    80002c5a:	f1a50513          	addi	a0,a0,-230 # 80005b70 <__rodata_start+0xd68>
    80002c5e:	da3fe0ef          	jal	ra,80001a00 <log_debug>
    80002c62:	00003517          	auipc	a0,0x3
    80002c66:	f2e50513          	addi	a0,a0,-210 # 80005b90 <__rodata_start+0xd88>
    80002c6a:	d29fe0ef          	jal	ra,80001992 <log_trace>
    80002c6e:	0001                	nop
    80002c70:	70a2                	ld	ra,40(sp)
    80002c72:	7402                	ld	s0,32(sp)
    80002c74:	6145                	addi	sp,sp,48
    80002c76:	8082                	ret

0000000080002c78 <set_interrupt_priority>:
    80002c78:	7179                	addi	sp,sp,-48
    80002c7a:	f406                	sd	ra,40(sp)
    80002c7c:	f022                	sd	s0,32(sp)
    80002c7e:	1800                	addi	s0,sp,48
    80002c80:	87aa                	mv	a5,a0
    80002c82:	872e                	mv	a4,a1
    80002c84:	fcf42e23          	sw	a5,-36(s0)
    80002c88:	87ba                	mv	a5,a4
    80002c8a:	fcf42c23          	sw	a5,-40(s0)
    80002c8e:	fdc42783          	lw	a5,-36(s0)
    80002c92:	85be                	mv	a1,a5
    80002c94:	00003517          	auipc	a0,0x3
    80002c98:	f1c50513          	addi	a0,a0,-228 # 80005bb0 <__rodata_start+0xda8>
    80002c9c:	cf7fe0ef          	jal	ra,80001992 <log_trace>
    80002ca0:	fd842783          	lw	a5,-40(s0)
    80002ca4:	0027979b          	slliw	a5,a5,0x2
    80002ca8:	2781                	sext.w	a5,a5
    80002caa:	02079713          	slli	a4,a5,0x20
    80002cae:	9301                	srli	a4,a4,0x20
    80002cb0:	0c0007b7          	lui	a5,0xc000
    80002cb4:	97ba                	add	a5,a5,a4
    80002cb6:	fef43423          	sd	a5,-24(s0)
    80002cba:	fe843583          	ld	a1,-24(s0)
    80002cbe:	00003517          	auipc	a0,0x3
    80002cc2:	f1a50513          	addi	a0,a0,-230 # 80005bd8 <__rodata_start+0xdd0>
    80002cc6:	d3bfe0ef          	jal	ra,80001a00 <log_debug>
    80002cca:	fe843783          	ld	a5,-24(s0)
    80002cce:	439c                	lw	a5,0(a5)
    80002cd0:	85be                	mv	a1,a5
    80002cd2:	00003517          	auipc	a0,0x3
    80002cd6:	f2e50513          	addi	a0,a0,-210 # 80005c00 <__rodata_start+0xdf8>
    80002cda:	d27fe0ef          	jal	ra,80001a00 <log_debug>
    80002cde:	fe843783          	ld	a5,-24(s0)
    80002ce2:	fdc42703          	lw	a4,-36(s0)
    80002ce6:	c398                	sw	a4,0(a5)
    80002ce8:	fe843783          	ld	a5,-24(s0)
    80002cec:	439c                	lw	a5,0(a5)
    80002cee:	85be                	mv	a1,a5
    80002cf0:	00003517          	auipc	a0,0x3
    80002cf4:	f4850513          	addi	a0,a0,-184 # 80005c38 <__rodata_start+0xe30>
    80002cf8:	d09fe0ef          	jal	ra,80001a00 <log_debug>
    80002cfc:	00003517          	auipc	a0,0x3
    80002d00:	f6c50513          	addi	a0,a0,-148 # 80005c68 <__rodata_start+0xe60>
    80002d04:	c8ffe0ef          	jal	ra,80001992 <log_trace>
    80002d08:	0001                	nop
    80002d0a:	70a2                	ld	ra,40(sp)
    80002d0c:	7402                	ld	s0,32(sp)
    80002d0e:	6145                	addi	sp,sp,48
    80002d10:	8082                	ret

0000000080002d12 <configure_interrupt_pin>:
    80002d12:	7179                	addi	sp,sp,-48
    80002d14:	f406                	sd	ra,40(sp)
    80002d16:	f022                	sd	s0,32(sp)
    80002d18:	1800                	addi	s0,sp,48
    80002d1a:	87aa                	mv	a5,a0
    80002d1c:	fcf42e23          	sw	a5,-36(s0)
    80002d20:	00003517          	auipc	a0,0x3
    80002d24:	f6850513          	addi	a0,a0,-152 # 80005c88 <__rodata_start+0xe80>
    80002d28:	c6bfe0ef          	jal	ra,80001992 <log_trace>
    80002d2c:	000407b7          	lui	a5,0x40
    80002d30:	10078513          	addi	a0,a5,256 # 40100 <_tbss_end+0x40100>
    80002d34:	a87fe0ef          	jal	ra,800017ba <read_word>
    80002d38:	87aa                	mv	a5,a0
    80002d3a:	fef42623          	sw	a5,-20(s0)
    80002d3e:	fec42783          	lw	a5,-20(s0)
    80002d42:	85be                	mv	a1,a5
    80002d44:	00003517          	auipc	a0,0x3
    80002d48:	f6c50513          	addi	a0,a0,-148 # 80005cb0 <__rodata_start+0xea8>
    80002d4c:	cb5fe0ef          	jal	ra,80001a00 <log_debug>
    80002d50:	fdc42783          	lw	a5,-36(s0)
    80002d54:	37e5                	addiw	a5,a5,-7
    80002d56:	2781                	sext.w	a5,a5
    80002d58:	4705                	li	a4,1
    80002d5a:	00f717bb          	sllw	a5,a4,a5
    80002d5e:	2781                	sext.w	a5,a5
    80002d60:	fff7c793          	not	a5,a5
    80002d64:	2781                	sext.w	a5,a5
    80002d66:	0007871b          	sext.w	a4,a5
    80002d6a:	fec42783          	lw	a5,-20(s0)
    80002d6e:	8ff9                	and	a5,a5,a4
    80002d70:	2781                	sext.w	a5,a5
    80002d72:	1782                	slli	a5,a5,0x20
    80002d74:	9381                	srli	a5,a5,0x20
    80002d76:	85be                	mv	a1,a5
    80002d78:	000407b7          	lui	a5,0x40
    80002d7c:	10078513          	addi	a0,a5,256 # 40100 <_tbss_end+0x40100>
    80002d80:	a73fe0ef          	jal	ra,800017f2 <write_word>
    80002d84:	000407b7          	lui	a5,0x40
    80002d88:	10078513          	addi	a0,a5,256 # 40100 <_tbss_end+0x40100>
    80002d8c:	a2ffe0ef          	jal	ra,800017ba <read_word>
    80002d90:	87aa                	mv	a5,a0
    80002d92:	85be                	mv	a1,a5
    80002d94:	00003517          	auipc	a0,0x3
    80002d98:	f4450513          	addi	a0,a0,-188 # 80005cd8 <__rodata_start+0xed0>
    80002d9c:	c65fe0ef          	jal	ra,80001a00 <log_debug>
    80002da0:	00003517          	auipc	a0,0x3
    80002da4:	f6850513          	addi	a0,a0,-152 # 80005d08 <__rodata_start+0xf00>
    80002da8:	bebfe0ef          	jal	ra,80001992 <log_trace>
    80002dac:	0001                	nop
    80002dae:	70a2                	ld	ra,40(sp)
    80002db0:	7402                	ld	s0,32(sp)
    80002db2:	6145                	addi	sp,sp,48
    80002db4:	8082                	ret

0000000080002db6 <plic_init>:
    80002db6:	1101                	addi	sp,sp,-32
    80002db8:	ec06                	sd	ra,24(sp)
    80002dba:	e822                	sd	s0,16(sp)
    80002dbc:	1000                	addi	s0,sp,32
    80002dbe:	fe042623          	sw	zero,-20(s0)
    80002dc2:	00003517          	auipc	a0,0x3
    80002dc6:	f6650513          	addi	a0,a0,-154 # 80005d28 <__rodata_start+0xf20>
    80002dca:	bc9fe0ef          	jal	ra,80001992 <log_trace>
    80002dce:	9e018793          	addi	a5,gp,-1568 # 80006358 <mcause_interrupt_table>
    80002dd2:	00000717          	auipc	a4,0x0
    80002dd6:	b3c70713          	addi	a4,a4,-1220 # 8000290e <mach_plic_handler>
    80002dda:	efb8                	sd	a4,88(a5)
    80002ddc:	45ad                	li	a1,11
    80002dde:	00003517          	auipc	a0,0x3
    80002de2:	f6250513          	addi	a0,a0,-158 # 80005d40 <__rodata_start+0xf38>
    80002de6:	c1bfe0ef          	jal	ra,80001a00 <log_debug>
    80002dea:	af818793          	addi	a5,gp,-1288 # 80006470 <hart0_interrupt_matrix>
    80002dee:	0007a423          	sw	zero,8(a5)
    80002df2:	af818793          	addi	a5,gp,-1288 # 80006470 <hart0_interrupt_matrix>
    80002df6:	0007a023          	sw	zero,0(a5)
    80002dfa:	af818793          	addi	a5,gp,-1288 # 80006470 <hart0_interrupt_matrix>
    80002dfe:	0007a223          	sw	zero,4(a5)
    80002e02:	af818793          	addi	a5,gp,-1288 # 80006470 <hart0_interrupt_matrix>
    80002e06:	0007a623          	sw	zero,12(a5)
    80002e0a:	4785                	li	a5,1
    80002e0c:	fef42623          	sw	a5,-20(s0)
    80002e10:	a0f1                	j	80002edc <plic_init+0x126>
    80002e12:	af818713          	addi	a4,gp,-1288 # 80006470 <hart0_interrupt_matrix>
    80002e16:	fec46783          	lwu	a5,-20(s0)
    80002e1a:	0792                	slli	a5,a5,0x4
    80002e1c:	97ba                	add	a5,a5,a4
    80002e1e:	0007a423          	sw	zero,8(a5)
    80002e22:	af818713          	addi	a4,gp,-1288 # 80006470 <hart0_interrupt_matrix>
    80002e26:	fec46783          	lwu	a5,-20(s0)
    80002e2a:	0792                	slli	a5,a5,0x4
    80002e2c:	97ba                	add	a5,a5,a4
    80002e2e:	fec42703          	lw	a4,-20(s0)
    80002e32:	c398                	sw	a4,0(a5)
    80002e34:	af818713          	addi	a4,gp,-1288 # 80006470 <hart0_interrupt_matrix>
    80002e38:	fec46783          	lwu	a5,-20(s0)
    80002e3c:	0792                	slli	a5,a5,0x4
    80002e3e:	97ba                	add	a5,a5,a4
    80002e40:	4709                	li	a4,2
    80002e42:	c3d8                	sw	a4,4(a5)
    80002e44:	af818713          	addi	a4,gp,-1288 # 80006470 <hart0_interrupt_matrix>
    80002e48:	fec46783          	lwu	a5,-20(s0)
    80002e4c:	0792                	slli	a5,a5,0x4
    80002e4e:	97ba                	add	a5,a5,a4
    80002e50:	0007a623          	sw	zero,12(a5)
    80002e54:	00003517          	auipc	a0,0x3
    80002e58:	f1c50513          	addi	a0,a0,-228 # 80005d70 <__rodata_start+0xf68>
    80002e5c:	ba5fe0ef          	jal	ra,80001a00 <log_debug>
    80002e60:	fec42783          	lw	a5,-20(s0)
    80002e64:	853e                	mv	a0,a5
    80002e66:	ca5ff0ef          	jal	ra,80002b0a <interrupt_disable>
    80002e6a:	ce818713          	addi	a4,gp,-792 # 80006660 <isr_table>
    80002e6e:	fec46783          	lwu	a5,-20(s0)
    80002e72:	078e                	slli	a5,a5,0x3
    80002e74:	97ba                	add	a5,a5,a4
    80002e76:	00000717          	auipc	a4,0x0
    80002e7a:	b7270713          	addi	a4,a4,-1166 # 800029e8 <isr_default>
    80002e7e:	e398                	sd	a4,0(a5)
    80002e80:	fec42783          	lw	a5,-20(s0)
    80002e84:	85be                	mv	a1,a5
    80002e86:	4509                	li	a0,2
    80002e88:	df1ff0ef          	jal	ra,80002c78 <set_interrupt_priority>
    80002e8c:	af818713          	addi	a4,gp,-1288 # 80006470 <hart0_interrupt_matrix>
    80002e90:	fec46783          	lwu	a5,-20(s0)
    80002e94:	0792                	slli	a5,a5,0x4
    80002e96:	97ba                	add	a5,a5,a4
    80002e98:	438c                	lw	a1,0(a5)
    80002e9a:	af818713          	addi	a4,gp,-1288 # 80006470 <hart0_interrupt_matrix>
    80002e9e:	fec46783          	lwu	a5,-20(s0)
    80002ea2:	0792                	slli	a5,a5,0x4
    80002ea4:	97ba                	add	a5,a5,a4
    80002ea6:	4790                	lw	a2,8(a5)
    80002ea8:	af818713          	addi	a4,gp,-1288 # 80006470 <hart0_interrupt_matrix>
    80002eac:	fec46783          	lwu	a5,-20(s0)
    80002eb0:	0792                	slli	a5,a5,0x4
    80002eb2:	97ba                	add	a5,a5,a4
    80002eb4:	43d4                	lw	a3,4(a5)
    80002eb6:	af818713          	addi	a4,gp,-1288 # 80006470 <hart0_interrupt_matrix>
    80002eba:	fec46783          	lwu	a5,-20(s0)
    80002ebe:	0792                	slli	a5,a5,0x4
    80002ec0:	97ba                	add	a5,a5,a4
    80002ec2:	47dc                	lw	a5,12(a5)
    80002ec4:	873e                	mv	a4,a5
    80002ec6:	00003517          	auipc	a0,0x3
    80002eca:	ee250513          	addi	a0,a0,-286 # 80005da8 <__rodata_start+0xfa0>
    80002ece:	b33fe0ef          	jal	ra,80001a00 <log_debug>
    80002ed2:	fec42783          	lw	a5,-20(s0)
    80002ed6:	2785                	addiw	a5,a5,1
    80002ed8:	fef42623          	sw	a5,-20(s0)
    80002edc:	fec42783          	lw	a5,-20(s0)
    80002ee0:	0007871b          	sext.w	a4,a5
    80002ee4:	47f9                	li	a5,30
    80002ee6:	f2e7f6e3          	bgeu	a5,a4,80002e12 <plic_init+0x5c>
    80002eea:	4505                	li	a0,1
    80002eec:	d33ff0ef          	jal	ra,80002c1e <set_interrupt_threshold>
    80002ef0:	00003517          	auipc	a0,0x3
    80002ef4:	f4850513          	addi	a0,a0,-184 # 80005e38 <__rodata_start+0x1030>
    80002ef8:	a9bfe0ef          	jal	ra,80001992 <log_trace>
    80002efc:	0001                	nop
    80002efe:	60e2                	ld	ra,24(sp)
    80002f00:	6442                	ld	s0,16(sp)
    80002f02:	6105                	addi	sp,sp,32
    80002f04:	8082                	ret

0000000080002f06 <configure_interrupt>:
    80002f06:	1101                	addi	sp,sp,-32
    80002f08:	ec06                	sd	ra,24(sp)
    80002f0a:	e822                	sd	s0,16(sp)
    80002f0c:	1000                	addi	s0,sp,32
    80002f0e:	87aa                	mv	a5,a0
    80002f10:	fef42623          	sw	a5,-20(s0)
    80002f14:	00003517          	auipc	a0,0x3
    80002f18:	f3c50513          	addi	a0,a0,-196 # 80005e50 <__rodata_start+0x1048>
    80002f1c:	a77fe0ef          	jal	ra,80001992 <log_trace>
    80002f20:	fec42783          	lw	a5,-20(s0)
    80002f24:	0007871b          	sext.w	a4,a5
    80002f28:	4799                	li	a5,6
    80002f2a:	00e7fe63          	bgeu	a5,a4,80002f46 <configure_interrupt+0x40>
    80002f2e:	fec42783          	lw	a5,-20(s0)
    80002f32:	0007871b          	sext.w	a4,a5
    80002f36:	47d5                	li	a5,21
    80002f38:	00e7e763          	bltu	a5,a4,80002f46 <configure_interrupt+0x40>
    80002f3c:	fec42783          	lw	a5,-20(s0)
    80002f40:	853e                	mv	a0,a5
    80002f42:	dd1ff0ef          	jal	ra,80002d12 <configure_interrupt_pin>
    80002f46:	fec42783          	lw	a5,-20(s0)
    80002f4a:	853e                	mv	a0,a5
    80002f4c:	adfff0ef          	jal	ra,80002a2a <interrupt_enable>
    80002f50:	00003517          	auipc	a0,0x3
    80002f54:	f2050513          	addi	a0,a0,-224 # 80005e70 <__rodata_start+0x1068>
    80002f58:	a3bfe0ef          	jal	ra,80001992 <log_trace>
    80002f5c:	0001                	nop
    80002f5e:	60e2                	ld	ra,24(sp)
    80002f60:	6442                	ld	s0,16(sp)
    80002f62:	6105                	addi	sp,sp,32
    80002f64:	8082                	ret

0000000080002f66 <trap_init>:
    80002f66:	1141                	addi	sp,sp,-16
    80002f68:	e406                	sd	ra,8(sp)
    80002f6a:	e022                	sd	s0,0(sp)
    80002f6c:	0800                	addi	s0,sp,16
    80002f6e:	00003517          	auipc	a0,0x3
    80002f72:	f2250513          	addi	a0,a0,-222 # 80005e90 <__rodata_start+0x1088>
    80002f76:	a1dfe0ef          	jal	ra,80001992 <log_trace>
    80002f7a:	9e018793          	addi	a5,gp,-1568 # 80006358 <mcause_interrupt_table>
    80002f7e:	fffff717          	auipc	a4,0xfffff
    80002f82:	90c70713          	addi	a4,a4,-1780 # 8000188a <default_handler>
    80002f86:	e398                	sd	a4,0(a5)
    80002f88:	9e018793          	addi	a5,gp,-1568 # 80006358 <mcause_interrupt_table>
    80002f8c:	fffff717          	auipc	a4,0xfffff
    80002f90:	8fe70713          	addi	a4,a4,-1794 # 8000188a <default_handler>
    80002f94:	e798                	sd	a4,8(a5)
    80002f96:	9e018793          	addi	a5,gp,-1568 # 80006358 <mcause_interrupt_table>
    80002f9a:	fffff717          	auipc	a4,0xfffff
    80002f9e:	8f070713          	addi	a4,a4,-1808 # 8000188a <default_handler>
    80002fa2:	eb98                	sd	a4,16(a5)
    80002fa4:	9e018793          	addi	a5,gp,-1568 # 80006358 <mcause_interrupt_table>
    80002fa8:	fffff717          	auipc	a4,0xfffff
    80002fac:	8e270713          	addi	a4,a4,-1822 # 8000188a <default_handler>
    80002fb0:	ef98                	sd	a4,24(a5)
    80002fb2:	9e018793          	addi	a5,gp,-1568 # 80006358 <mcause_interrupt_table>
    80002fb6:	fffff717          	auipc	a4,0xfffff
    80002fba:	8d470713          	addi	a4,a4,-1836 # 8000188a <default_handler>
    80002fbe:	f398                	sd	a4,32(a5)
    80002fc0:	9e018793          	addi	a5,gp,-1568 # 80006358 <mcause_interrupt_table>
    80002fc4:	fffff717          	auipc	a4,0xfffff
    80002fc8:	8c670713          	addi	a4,a4,-1850 # 8000188a <default_handler>
    80002fcc:	f798                	sd	a4,40(a5)
    80002fce:	9e018793          	addi	a5,gp,-1568 # 80006358 <mcause_interrupt_table>
    80002fd2:	fffff717          	auipc	a4,0xfffff
    80002fd6:	8b870713          	addi	a4,a4,-1864 # 8000188a <default_handler>
    80002fda:	fb98                	sd	a4,48(a5)
    80002fdc:	9e018793          	addi	a5,gp,-1568 # 80006358 <mcause_interrupt_table>
    80002fe0:	00000717          	auipc	a4,0x0
    80002fe4:	3be70713          	addi	a4,a4,958 # 8000339e <mach_clint_handler>
    80002fe8:	ff98                	sd	a4,56(a5)
    80002fea:	9e018793          	addi	a5,gp,-1568 # 80006358 <mcause_interrupt_table>
    80002fee:	fffff717          	auipc	a4,0xfffff
    80002ff2:	89c70713          	addi	a4,a4,-1892 # 8000188a <default_handler>
    80002ff6:	e3b8                	sd	a4,64(a5)
    80002ff8:	9e018793          	addi	a5,gp,-1568 # 80006358 <mcause_interrupt_table>
    80002ffc:	fffff717          	auipc	a4,0xfffff
    80003000:	88e70713          	addi	a4,a4,-1906 # 8000188a <default_handler>
    80003004:	e7b8                	sd	a4,72(a5)
    80003006:	9e018793          	addi	a5,gp,-1568 # 80006358 <mcause_interrupt_table>
    8000300a:	fffff717          	auipc	a4,0xfffff
    8000300e:	88070713          	addi	a4,a4,-1920 # 8000188a <default_handler>
    80003012:	ebb8                	sd	a4,80(a5)
    80003014:	9e018793          	addi	a5,gp,-1568 # 80006358 <mcause_interrupt_table>
    80003018:	00000717          	auipc	a4,0x0
    8000301c:	8f670713          	addi	a4,a4,-1802 # 8000290e <mach_plic_handler>
    80003020:	efb8                	sd	a4,88(a5)
    80003022:	9e018793          	addi	a5,gp,-1568 # 80006358 <mcause_interrupt_table>
    80003026:	fffff717          	auipc	a4,0xfffff
    8000302a:	86470713          	addi	a4,a4,-1948 # 8000188a <default_handler>
    8000302e:	f3b8                	sd	a4,96(a5)
    80003030:	9e018793          	addi	a5,gp,-1568 # 80006358 <mcause_interrupt_table>
    80003034:	fffff717          	auipc	a4,0xfffff
    80003038:	85670713          	addi	a4,a4,-1962 # 8000188a <default_handler>
    8000303c:	f7b8                	sd	a4,104(a5)
    8000303e:	9e018793          	addi	a5,gp,-1568 # 80006358 <mcause_interrupt_table>
    80003042:	fffff717          	auipc	a4,0xfffff
    80003046:	84870713          	addi	a4,a4,-1976 # 8000188a <default_handler>
    8000304a:	fbb8                	sd	a4,112(a5)
    8000304c:	9e018793          	addi	a5,gp,-1568 # 80006358 <mcause_interrupt_table>
    80003050:	fffff717          	auipc	a4,0xfffff
    80003054:	83a70713          	addi	a4,a4,-1990 # 8000188a <default_handler>
    80003058:	ffb8                	sd	a4,120(a5)
    8000305a:	a6018793          	addi	a5,gp,-1440 # 800063d8 <mcause_trap_table>
    8000305e:	fffff717          	auipc	a4,0xfffff
    80003062:	82c70713          	addi	a4,a4,-2004 # 8000188a <default_handler>
    80003066:	e398                	sd	a4,0(a5)
    80003068:	a6018793          	addi	a5,gp,-1440 # 800063d8 <mcause_trap_table>
    8000306c:	fffff717          	auipc	a4,0xfffff
    80003070:	81e70713          	addi	a4,a4,-2018 # 8000188a <default_handler>
    80003074:	e798                	sd	a4,8(a5)
    80003076:	a6018793          	addi	a5,gp,-1440 # 800063d8 <mcause_trap_table>
    8000307a:	fffff717          	auipc	a4,0xfffff
    8000307e:	81070713          	addi	a4,a4,-2032 # 8000188a <default_handler>
    80003082:	eb98                	sd	a4,16(a5)
    80003084:	a6018793          	addi	a5,gp,-1440 # 800063d8 <mcause_trap_table>
    80003088:	fffff717          	auipc	a4,0xfffff
    8000308c:	80270713          	addi	a4,a4,-2046 # 8000188a <default_handler>
    80003090:	ef98                	sd	a4,24(a5)
    80003092:	a6018793          	addi	a5,gp,-1440 # 800063d8 <mcause_trap_table>
    80003096:	ffffe717          	auipc	a4,0xffffe
    8000309a:	7f470713          	addi	a4,a4,2036 # 8000188a <default_handler>
    8000309e:	f398                	sd	a4,32(a5)
    800030a0:	a6018793          	addi	a5,gp,-1440 # 800063d8 <mcause_trap_table>
    800030a4:	ffffe717          	auipc	a4,0xffffe
    800030a8:	7e670713          	addi	a4,a4,2022 # 8000188a <default_handler>
    800030ac:	f798                	sd	a4,40(a5)
    800030ae:	a6018793          	addi	a5,gp,-1440 # 800063d8 <mcause_trap_table>
    800030b2:	ffffe717          	auipc	a4,0xffffe
    800030b6:	7d870713          	addi	a4,a4,2008 # 8000188a <default_handler>
    800030ba:	fb98                	sd	a4,48(a5)
    800030bc:	a6018793          	addi	a5,gp,-1440 # 800063d8 <mcause_trap_table>
    800030c0:	ffffe717          	auipc	a4,0xffffe
    800030c4:	7ca70713          	addi	a4,a4,1994 # 8000188a <default_handler>
    800030c8:	ff98                	sd	a4,56(a5)
    800030ca:	a6018793          	addi	a5,gp,-1440 # 800063d8 <mcause_trap_table>
    800030ce:	ffffe717          	auipc	a4,0xffffe
    800030d2:	7bc70713          	addi	a4,a4,1980 # 8000188a <default_handler>
    800030d6:	e3b8                	sd	a4,64(a5)
    800030d8:	a6018793          	addi	a5,gp,-1440 # 800063d8 <mcause_trap_table>
    800030dc:	ffffe717          	auipc	a4,0xffffe
    800030e0:	7ae70713          	addi	a4,a4,1966 # 8000188a <default_handler>
    800030e4:	e7b8                	sd	a4,72(a5)
    800030e6:	a6018793          	addi	a5,gp,-1440 # 800063d8 <mcause_trap_table>
    800030ea:	ffffe717          	auipc	a4,0xffffe
    800030ee:	7a070713          	addi	a4,a4,1952 # 8000188a <default_handler>
    800030f2:	ebb8                	sd	a4,80(a5)
    800030f4:	a6018793          	addi	a5,gp,-1440 # 800063d8 <mcause_trap_table>
    800030f8:	ffffe717          	auipc	a4,0xffffe
    800030fc:	79270713          	addi	a4,a4,1938 # 8000188a <default_handler>
    80003100:	efb8                	sd	a4,88(a5)
    80003102:	a6018793          	addi	a5,gp,-1440 # 800063d8 <mcause_trap_table>
    80003106:	ffffe717          	auipc	a4,0xffffe
    8000310a:	78470713          	addi	a4,a4,1924 # 8000188a <default_handler>
    8000310e:	f3b8                	sd	a4,96(a5)
    80003110:	a6018793          	addi	a5,gp,-1440 # 800063d8 <mcause_trap_table>
    80003114:	ffffe717          	auipc	a4,0xffffe
    80003118:	77670713          	addi	a4,a4,1910 # 8000188a <default_handler>
    8000311c:	f7b8                	sd	a4,104(a5)
    8000311e:	a6018793          	addi	a5,gp,-1440 # 800063d8 <mcause_trap_table>
    80003122:	ffffe717          	auipc	a4,0xffffe
    80003126:	76870713          	addi	a4,a4,1896 # 8000188a <default_handler>
    8000312a:	fbb8                	sd	a4,112(a5)
    8000312c:	a6018793          	addi	a5,gp,-1440 # 800063d8 <mcause_trap_table>
    80003130:	ffffe717          	auipc	a4,0xffffe
    80003134:	75a70713          	addi	a4,a4,1882 # 8000188a <default_handler>
    80003138:	ffb8                	sd	a4,120(a5)
    8000313a:	00003517          	auipc	a0,0x3
    8000313e:	d6e50513          	addi	a0,a0,-658 # 80005ea8 <__rodata_start+0x10a0>
    80003142:	851fe0ef          	jal	ra,80001992 <log_trace>
    80003146:	0001                	nop
    80003148:	60a2                	ld	ra,8(sp)
    8000314a:	6402                	ld	s0,0(sp)
    8000314c:	0141                	addi	sp,sp,16
    8000314e:	8082                	ret

0000000080003150 <init>:
    80003150:	1141                	addi	sp,sp,-16
    80003152:	e406                	sd	ra,8(sp)
    80003154:	e022                	sd	s0,0(sp)
    80003156:	0800                	addi	s0,sp,16
    80003158:	e85fe0ef          	jal	ra,80001fdc <uart_init>
    8000315c:	00003517          	auipc	a0,0x3
    80003160:	d6450513          	addi	a0,a0,-668 # 80005ec0 <__rodata_start+0x10b8>
    80003164:	82ffe0ef          	jal	ra,80001992 <log_trace>
    80003168:	dffff0ef          	jal	ra,80002f66 <trap_init>
    8000316c:	d1ffd0ef          	jal	ra,80000e8a <main>
    80003170:	00003517          	auipc	a0,0x3
    80003174:	d6050513          	addi	a0,a0,-672 # 80005ed0 <__rodata_start+0x10c8>
    80003178:	81bfe0ef          	jal	ra,80001992 <log_trace>
    8000317c:	0001                	nop
    8000317e:	60a2                	ld	ra,8(sp)
    80003180:	6402                	ld	s0,0(sp)
    80003182:	0141                	addi	sp,sp,16
    80003184:	8082                	ret

0000000080003186 <pinmux_enable_uart1>:
    80003186:	1141                	addi	sp,sp,-16
    80003188:	e422                	sd	s0,8(sp)
    8000318a:	0800                	addi	s0,sp,16
    8000318c:	81818793          	addi	a5,gp,-2024 # 80006190 <pinmux_config_reg>
    80003190:	639c                	ld	a5,0(a5)
    80003192:	4715                	li	a4,5
    80003194:	c398                	sw	a4,0(a5)
    80003196:	0001                	nop
    80003198:	6422                	ld	s0,8(sp)
    8000319a:	0141                	addi	sp,sp,16
    8000319c:	8082                	ret

000000008000319e <pinmux_enable_uart2>:
    8000319e:	1141                	addi	sp,sp,-16
    800031a0:	e422                	sd	s0,8(sp)
    800031a2:	0800                	addi	s0,sp,16
    800031a4:	81818793          	addi	a5,gp,-2024 # 80006190 <pinmux_config_reg>
    800031a8:	639c                	ld	a5,0(a5)
    800031aa:	05000713          	li	a4,80
    800031ae:	c398                	sw	a4,0(a5)
    800031b0:	0001                	nop
    800031b2:	6422                	ld	s0,8(sp)
    800031b4:	0141                	addi	sp,sp,16
    800031b6:	8082                	ret

00000000800031b8 <pinmux_enable_uart1_uart2>:
    800031b8:	1141                	addi	sp,sp,-16
    800031ba:	e422                	sd	s0,8(sp)
    800031bc:	0800                	addi	s0,sp,16
    800031be:	81818793          	addi	a5,gp,-2024 # 80006190 <pinmux_config_reg>
    800031c2:	639c                	ld	a5,0(a5)
    800031c4:	05500713          	li	a4,85
    800031c8:	c398                	sw	a4,0(a5)
    800031ca:	0001                	nop
    800031cc:	6422                	ld	s0,8(sp)
    800031ce:	0141                	addi	sp,sp,16
    800031d0:	8082                	ret

00000000800031d2 <pinmux_enable_spi1>:
    800031d2:	1141                	addi	sp,sp,-16
    800031d4:	e422                	sd	s0,8(sp)
    800031d6:	0800                	addi	s0,sp,16
    800031d8:	81818793          	addi	a5,gp,-2024 # 80006190 <pinmux_config_reg>
    800031dc:	639c                	ld	a5,0(a5)
    800031de:	00154737          	lui	a4,0x154
    800031e2:	c398                	sw	a4,0(a5)
    800031e4:	0001                	nop
    800031e6:	6422                	ld	s0,8(sp)
    800031e8:	0141                	addi	sp,sp,16
    800031ea:	8082                	ret

00000000800031ec <pinmux_enable_pwm>:
    800031ec:	1101                	addi	sp,sp,-32
    800031ee:	ec22                	sd	s0,24(sp)
    800031f0:	1000                	addi	s0,sp,32
    800031f2:	87aa                	mv	a5,a0
    800031f4:	fef407a3          	sb	a5,-17(s0)
    800031f8:	fef44783          	lbu	a5,-17(s0)
    800031fc:	2781                	sext.w	a5,a5
    800031fe:	86be                	mv	a3,a5
    80003200:	4715                	li	a4,5
    80003202:	06d76b63          	bltu	a4,a3,80003278 <pinmux_enable_pwm+0x8c>
    80003206:	00279713          	slli	a4,a5,0x2
    8000320a:	00003797          	auipc	a5,0x3
    8000320e:	cd678793          	addi	a5,a5,-810 # 80005ee0 <__rodata_start+0x10d8>
    80003212:	97ba                	add	a5,a5,a4
    80003214:	439c                	lw	a5,0(a5)
    80003216:	0007871b          	sext.w	a4,a5
    8000321a:	00003797          	auipc	a5,0x3
    8000321e:	cc678793          	addi	a5,a5,-826 # 80005ee0 <__rodata_start+0x10d8>
    80003222:	97ba                	add	a5,a5,a4
    80003224:	8782                	jr	a5
    80003226:	81818793          	addi	a5,gp,-2024 # 80006190 <pinmux_config_reg>
    8000322a:	639c                	ld	a5,0(a5)
    8000322c:	08000713          	li	a4,128
    80003230:	c398                	sw	a4,0(a5)
    80003232:	a0a1                	j	8000327a <pinmux_enable_pwm+0x8e>
    80003234:	81818793          	addi	a5,gp,-2024 # 80006190 <pinmux_config_reg>
    80003238:	639c                	ld	a5,0(a5)
    8000323a:	20000713          	li	a4,512
    8000323e:	c398                	sw	a4,0(a5)
    80003240:	a82d                	j	8000327a <pinmux_enable_pwm+0x8e>
    80003242:	81818793          	addi	a5,gp,-2024 # 80006190 <pinmux_config_reg>
    80003246:	639c                	ld	a5,0(a5)
    80003248:	6705                	lui	a4,0x1
    8000324a:	80070713          	addi	a4,a4,-2048 # 800 <_tbss_end+0x800>
    8000324e:	c398                	sw	a4,0(a5)
    80003250:	a02d                	j	8000327a <pinmux_enable_pwm+0x8e>
    80003252:	81818793          	addi	a5,gp,-2024 # 80006190 <pinmux_config_reg>
    80003256:	639c                	ld	a5,0(a5)
    80003258:	6709                	lui	a4,0x2
    8000325a:	c398                	sw	a4,0(a5)
    8000325c:	a839                	j	8000327a <pinmux_enable_pwm+0x8e>
    8000325e:	81818793          	addi	a5,gp,-2024 # 80006190 <pinmux_config_reg>
    80003262:	639c                	ld	a5,0(a5)
    80003264:	6721                	lui	a4,0x8
    80003266:	c398                	sw	a4,0(a5)
    80003268:	a809                	j	8000327a <pinmux_enable_pwm+0x8e>
    8000326a:	81818793          	addi	a5,gp,-2024 # 80006190 <pinmux_config_reg>
    8000326e:	639c                	ld	a5,0(a5)
    80003270:	00020737          	lui	a4,0x20
    80003274:	c398                	sw	a4,0(a5)
    80003276:	a011                	j	8000327a <pinmux_enable_pwm+0x8e>
    80003278:	0001                	nop
    8000327a:	0001                	nop
    8000327c:	6462                	ld	s0,24(sp)
    8000327e:	6105                	addi	sp,sp,32
    80003280:	8082                	ret

0000000080003282 <pinmux_enable_all_pwms>:
    80003282:	1141                	addi	sp,sp,-16
    80003284:	e422                	sd	s0,8(sp)
    80003286:	0800                	addi	s0,sp,16
    80003288:	81818793          	addi	a5,gp,-2024 # 80006190 <pinmux_config_reg>
    8000328c:	639c                	ld	a5,0(a5)
    8000328e:	0002b737          	lui	a4,0x2b
    80003292:	a8070713          	addi	a4,a4,-1408 # 2aa80 <_tbss_end+0x2aa80>
    80003296:	c398                	sw	a4,0(a5)
    80003298:	0001                	nop
    8000329a:	6422                	ld	s0,8(sp)
    8000329c:	0141                	addi	sp,sp,16
    8000329e:	8082                	ret

00000000800032a0 <mtime_low>:
    800032a0:	1141                	addi	sp,sp,-16
    800032a2:	e422                	sd	s0,8(sp)
    800032a4:	0800                	addi	s0,sp,16
    800032a6:	0200c7b7          	lui	a5,0x200c
    800032aa:	17e1                	addi	a5,a5,-8
    800032ac:	439c                	lw	a5,0(a5)
    800032ae:	853e                	mv	a0,a5
    800032b0:	6422                	ld	s0,8(sp)
    800032b2:	0141                	addi	sp,sp,16
    800032b4:	8082                	ret

00000000800032b6 <mtime_high>:
    800032b6:	1141                	addi	sp,sp,-16
    800032b8:	e422                	sd	s0,8(sp)
    800032ba:	0800                	addi	s0,sp,16
    800032bc:	0200c7b7          	lui	a5,0x200c
    800032c0:	17f1                	addi	a5,a5,-4
    800032c2:	439c                	lw	a5,0(a5)
    800032c4:	2781                	sext.w	a5,a5
    800032c6:	853e                	mv	a0,a5
    800032c8:	6422                	ld	s0,8(sp)
    800032ca:	0141                	addi	sp,sp,16
    800032cc:	8082                	ret

00000000800032ce <get_timer_value>:
    800032ce:	1101                	addi	sp,sp,-32
    800032d0:	ec06                	sd	ra,24(sp)
    800032d2:	e822                	sd	s0,16(sp)
    800032d4:	e426                	sd	s1,8(sp)
    800032d6:	1000                	addi	s0,sp,32
    800032d8:	fdfff0ef          	jal	ra,800032b6 <mtime_high>
    800032dc:	87aa                	mv	a5,a0
    800032de:	2781                	sext.w	a5,a5
    800032e0:	1782                	slli	a5,a5,0x20
    800032e2:	9381                	srli	a5,a5,0x20
    800032e4:	02079493          	slli	s1,a5,0x20
    800032e8:	fb9ff0ef          	jal	ra,800032a0 <mtime_low>
    800032ec:	87aa                	mv	a5,a0
    800032ee:	2781                	sext.w	a5,a5
    800032f0:	1782                	slli	a5,a5,0x20
    800032f2:	9381                	srli	a5,a5,0x20
    800032f4:	8fc5                	or	a5,a5,s1
    800032f6:	853e                	mv	a0,a5
    800032f8:	60e2                	ld	ra,24(sp)
    800032fa:	6442                	ld	s0,16(sp)
    800032fc:	64a2                	ld	s1,8(sp)
    800032fe:	6105                	addi	sp,sp,32
    80003300:	8082                	ret

0000000080003302 <configure_counter>:
    80003302:	1101                	addi	sp,sp,-32
    80003304:	ec06                	sd	ra,24(sp)
    80003306:	e822                	sd	s0,16(sp)
    80003308:	1000                	addi	s0,sp,32
    8000330a:	fea43423          	sd	a0,-24(s0)
    8000330e:	00003517          	auipc	a0,0x3
    80003312:	bea50513          	addi	a0,a0,-1046 # 80005ef8 <__rodata_start+0x10f0>
    80003316:	e7cfe0ef          	jal	ra,80001992 <log_trace>
    8000331a:	82018793          	addi	a5,gp,-2016 # 80006198 <mtime>
    8000331e:	639c                	ld	a5,0(a5)
    80003320:	6394                	ld	a3,0(a5)
    80003322:	82818793          	addi	a5,gp,-2008 # 800061a0 <mtimecmp>
    80003326:	639c                	ld	a5,0(a5)
    80003328:	fe843703          	ld	a4,-24(s0)
    8000332c:	9736                	add	a4,a4,a3
    8000332e:	e398                	sd	a4,0(a5)
    80003330:	82818793          	addi	a5,gp,-2008 # 800061a0 <mtimecmp>
    80003334:	639c                	ld	a5,0(a5)
    80003336:	639c                	ld	a5,0(a5)
    80003338:	85be                	mv	a1,a5
    8000333a:	00003517          	auipc	a0,0x3
    8000333e:	bde50513          	addi	a0,a0,-1058 # 80005f18 <__rodata_start+0x1110>
    80003342:	ebefe0ef          	jal	ra,80001a00 <log_debug>
    80003346:	82018793          	addi	a5,gp,-2016 # 80006198 <mtime>
    8000334a:	639c                	ld	a5,0(a5)
    8000334c:	639c                	ld	a5,0(a5)
    8000334e:	85be                	mv	a1,a5
    80003350:	00003517          	auipc	a0,0x3
    80003354:	be050513          	addi	a0,a0,-1056 # 80005f30 <__rodata_start+0x1128>
    80003358:	ea8fe0ef          	jal	ra,80001a00 <log_debug>
    8000335c:	82818793          	addi	a5,gp,-2008 # 800061a0 <mtimecmp>
    80003360:	639c                	ld	a5,0(a5)
    80003362:	639c                	ld	a5,0(a5)
    80003364:	85be                	mv	a1,a5
    80003366:	00003517          	auipc	a0,0x3
    8000336a:	bb250513          	addi	a0,a0,-1102 # 80005f18 <__rodata_start+0x1110>
    8000336e:	e48fe0ef          	jal	ra,800019b6 <log_info>
    80003372:	82018793          	addi	a5,gp,-2016 # 80006198 <mtime>
    80003376:	639c                	ld	a5,0(a5)
    80003378:	639c                	ld	a5,0(a5)
    8000337a:	85be                	mv	a1,a5
    8000337c:	00003517          	auipc	a0,0x3
    80003380:	bb450513          	addi	a0,a0,-1100 # 80005f30 <__rodata_start+0x1128>
    80003384:	e32fe0ef          	jal	ra,800019b6 <log_info>
    80003388:	00003517          	auipc	a0,0x3
    8000338c:	bc050513          	addi	a0,a0,-1088 # 80005f48 <__rodata_start+0x1140>
    80003390:	e02fe0ef          	jal	ra,80001992 <log_trace>
    80003394:	0001                	nop
    80003396:	60e2                	ld	ra,24(sp)
    80003398:	6442                	ld	s0,16(sp)
    8000339a:	6105                	addi	sp,sp,32
    8000339c:	8082                	ret

000000008000339e <mach_clint_handler>:
    8000339e:	1101                	addi	sp,sp,-32
    800033a0:	ec06                	sd	ra,24(sp)
    800033a2:	e822                	sd	s0,16(sp)
    800033a4:	1000                	addi	s0,sp,32
    800033a6:	fea43423          	sd	a0,-24(s0)
    800033aa:	feb43023          	sd	a1,-32(s0)
    800033ae:	00003517          	auipc	a0,0x3
    800033b2:	bba50513          	addi	a0,a0,-1094 # 80005f68 <__rodata_start+0x1160>
    800033b6:	ddcfe0ef          	jal	ra,80001992 <log_trace>
    800033ba:	82818793          	addi	a5,gp,-2008 # 800061a0 <mtimecmp>
    800033be:	639c                	ld	a5,0(a5)
    800033c0:	577d                	li	a4,-1
    800033c2:	e398                	sd	a4,0(a5)
    800033c4:	00003517          	auipc	a0,0x3
    800033c8:	bc450513          	addi	a0,a0,-1084 # 80005f88 <__rodata_start+0x1180>
    800033cc:	deafe0ef          	jal	ra,800019b6 <log_info>
    800033d0:	00003517          	auipc	a0,0x3
    800033d4:	bd850513          	addi	a0,a0,-1064 # 80005fa8 <__rodata_start+0x11a0>
    800033d8:	dbafe0ef          	jal	ra,80001992 <log_trace>
    800033dc:	0001                	nop
    800033de:	60e2                	ld	ra,24(sp)
    800033e0:	6442                	ld	s0,16(sp)
    800033e2:	6105                	addi	sp,sp,32
    800033e4:	8082                	ret

00000000800033e6 <__adddf3>:
    800033e6:	1101                	addi	sp,sp,-32
    800033e8:	587d                	li	a6,-1
    800033ea:	00c85713          	srli	a4,a6,0xc
    800033ee:	0345d613          	srli	a2,a1,0x34
    800033f2:	e822                	sd	s0,16(sp)
    800033f4:	03455413          	srli	s0,a0,0x34
    800033f8:	00a777b3          	and	a5,a4,a0
    800033fc:	e426                	sd	s1,8(sp)
    800033fe:	8f6d                	and	a4,a4,a1
    80003400:	7ff47413          	andi	s0,s0,2047
    80003404:	7ff67613          	andi	a2,a2,2047
    80003408:	ec06                	sd	ra,24(sp)
    8000340a:	e04a                	sd	s2,0(sp)
    8000340c:	03f55493          	srli	s1,a0,0x3f
    80003410:	91fd                	srli	a1,a1,0x3f
    80003412:	078e                	slli	a5,a5,0x3
    80003414:	070e                	slli	a4,a4,0x3
    80003416:	40c406bb          	subw	a3,s0,a2
    8000341a:	12b49c63          	bne	s1,a1,80003552 <__adddf3+0x16c>
    8000341e:	0006859b          	sext.w	a1,a3
    80003422:	08b05463          	blez	a1,800034aa <__adddf3+0xc4>
    80003426:	ea21                	bnez	a2,80003476 <__adddf3+0x90>
    80003428:	cf05                	beqz	a4,80003460 <__adddf3+0x7a>
    8000342a:	fff6859b          	addiw	a1,a3,-1
    8000342e:	e58d                	bnez	a1,80003458 <__adddf3+0x72>
    80003430:	97ba                	add	a5,a5,a4
    80003432:	00879713          	slli	a4,a5,0x8
    80003436:	02075563          	bgez	a4,80003460 <__adddf3+0x7a>
    8000343a:	0405                	addi	s0,s0,1
    8000343c:	7ff00713          	li	a4,2047
    80003440:	28e40463          	beq	s0,a4,800036c8 <__adddf3+0x2e2>
    80003444:	1ff00713          	li	a4,511
    80003448:	175a                	slli	a4,a4,0x36
    8000344a:	0017f693          	andi	a3,a5,1
    8000344e:	177d                	addi	a4,a4,-1
    80003450:	8385                	srli	a5,a5,0x1
    80003452:	8ff9                	and	a5,a5,a4
    80003454:	8fd5                	or	a5,a5,a3
    80003456:	a029                	j	80003460 <__adddf3+0x7a>
    80003458:	7ff00693          	li	a3,2047
    8000345c:	02d41463          	bne	s0,a3,80003484 <__adddf3+0x9e>
    80003460:	0077f713          	andi	a4,a5,7
    80003464:	26070363          	beqz	a4,800036ca <__adddf3+0x2e4>
    80003468:	00f7f713          	andi	a4,a5,15
    8000346c:	4691                	li	a3,4
    8000346e:	24d70e63          	beq	a4,a3,800036ca <__adddf3+0x2e4>
    80003472:	0791                	addi	a5,a5,4
    80003474:	ac99                	j	800036ca <__adddf3+0x2e4>
    80003476:	7ff00693          	li	a3,2047
    8000347a:	fed403e3          	beq	s0,a3,80003460 <__adddf3+0x7a>
    8000347e:	4685                	li	a3,1
    80003480:	16de                	slli	a3,a3,0x37
    80003482:	8f55                	or	a4,a4,a3
    80003484:	03800613          	li	a2,56
    80003488:	4685                	li	a3,1
    8000348a:	00b64e63          	blt	a2,a1,800034a6 <__adddf3+0xc0>
    8000348e:	04000693          	li	a3,64
    80003492:	00b75633          	srl	a2,a4,a1
    80003496:	40b685bb          	subw	a1,a3,a1
    8000349a:	00b71733          	sll	a4,a4,a1
    8000349e:	00e03733          	snez	a4,a4
    800034a2:	00e666b3          	or	a3,a2,a4
    800034a6:	97b6                	add	a5,a5,a3
    800034a8:	b769                	j	80003432 <__adddf3+0x4c>
    800034aa:	cdb1                	beqz	a1,80003506 <__adddf3+0x120>
    800034ac:	e039                	bnez	s0,800034f2 <__adddf3+0x10c>
    800034ae:	20078463          	beqz	a5,800036b6 <__adddf3+0x2d0>
    800034b2:	01059563          	bne	a1,a6,800034bc <__adddf3+0xd6>
    800034b6:	97ba                	add	a5,a5,a4
    800034b8:	8432                	mv	s0,a2
    800034ba:	bfa5                	j	80003432 <__adddf3+0x4c>
    800034bc:	7ff00593          	li	a1,2047
    800034c0:	20b60063          	beq	a2,a1,800036c0 <__adddf3+0x2da>
    800034c4:	fff6c693          	not	a3,a3
    800034c8:	2681                	sext.w	a3,a3
    800034ca:	03800513          	li	a0,56
    800034ce:	4585                	li	a1,1
    800034d0:	00d54e63          	blt	a0,a3,800034ec <__adddf3+0x106>
    800034d4:	04000593          	li	a1,64
    800034d8:	00d7d533          	srl	a0,a5,a3
    800034dc:	40d586bb          	subw	a3,a1,a3
    800034e0:	00d797b3          	sll	a5,a5,a3
    800034e4:	00f037b3          	snez	a5,a5
    800034e8:	00f565b3          	or	a1,a0,a5
    800034ec:	00e587b3          	add	a5,a1,a4
    800034f0:	b7e1                	j	800034b8 <__adddf3+0xd2>
    800034f2:	7ff00593          	li	a1,2047
    800034f6:	1cb60563          	beq	a2,a1,800036c0 <__adddf3+0x2da>
    800034fa:	4585                	li	a1,1
    800034fc:	15de                	slli	a1,a1,0x37
    800034fe:	40d006bb          	negw	a3,a3
    80003502:	8fcd                	or	a5,a5,a1
    80003504:	b7d9                	j	800034ca <__adddf3+0xe4>
    80003506:	00140693          	addi	a3,s0,1
    8000350a:	7fe6f613          	andi	a2,a3,2046
    8000350e:	ea15                	bnez	a2,80003542 <__adddf3+0x15c>
    80003510:	ec19                	bnez	s0,8000352e <__adddf3+0x148>
    80003512:	1a078563          	beqz	a5,800036bc <__adddf3+0x2d6>
    80003516:	d729                	beqz	a4,80003460 <__adddf3+0x7a>
    80003518:	97ba                	add	a5,a5,a4
    8000351a:	00879713          	slli	a4,a5,0x8
    8000351e:	f40751e3          	bgez	a4,80003460 <__adddf3+0x7a>
    80003522:	185e                	slli	a6,a6,0x37
    80003524:	187d                	addi	a6,a6,-1
    80003526:	0107f7b3          	and	a5,a5,a6
    8000352a:	4405                	li	s0,1
    8000352c:	bf15                	j	80003460 <__adddf3+0x7a>
    8000352e:	18078963          	beqz	a5,800036c0 <__adddf3+0x2da>
    80003532:	12070063          	beqz	a4,80003652 <__adddf3+0x26c>
    80003536:	4785                	li	a5,1
    80003538:	4481                	li	s1,0
    8000353a:	17da                	slli	a5,a5,0x36
    8000353c:	7ff00413          	li	s0,2047
    80003540:	a269                	j	800036ca <__adddf3+0x2e4>
    80003542:	7ff00613          	li	a2,2047
    80003546:	16c68f63          	beq	a3,a2,800036c4 <__adddf3+0x2de>
    8000354a:	97ba                	add	a5,a5,a4
    8000354c:	8385                	srli	a5,a5,0x1
    8000354e:	8436                	mv	s0,a3
    80003550:	bf01                	j	80003460 <__adddf3+0x7a>
    80003552:	0006851b          	sext.w	a0,a3
    80003556:	04a05f63          	blez	a0,800035b4 <__adddf3+0x1ce>
    8000355a:	e629                	bnez	a2,800035a4 <__adddf3+0x1be>
    8000355c:	d311                	beqz	a4,80003460 <__adddf3+0x7a>
    8000355e:	fff6851b          	addiw	a0,a3,-1
    80003562:	e911                	bnez	a0,80003576 <__adddf3+0x190>
    80003564:	8f99                	sub	a5,a5,a4
    80003566:	00879713          	slli	a4,a5,0x8
    8000356a:	ee075be3          	bgez	a4,80003460 <__adddf3+0x7a>
    8000356e:	07a6                	slli	a5,a5,0x9
    80003570:	0097d913          	srli	s2,a5,0x9
    80003574:	a8dd                	j	8000366a <__adddf3+0x284>
    80003576:	7ff00693          	li	a3,2047
    8000357a:	eed403e3          	beq	s0,a3,80003460 <__adddf3+0x7a>
    8000357e:	03800613          	li	a2,56
    80003582:	4685                	li	a3,1
    80003584:	00a64e63          	blt	a2,a0,800035a0 <__adddf3+0x1ba>
    80003588:	04000693          	li	a3,64
    8000358c:	00a75633          	srl	a2,a4,a0
    80003590:	40a6853b          	subw	a0,a3,a0
    80003594:	00a71733          	sll	a4,a4,a0
    80003598:	00e03733          	snez	a4,a4
    8000359c:	00e666b3          	or	a3,a2,a4
    800035a0:	8f95                	sub	a5,a5,a3
    800035a2:	b7d1                	j	80003566 <__adddf3+0x180>
    800035a4:	7ff00693          	li	a3,2047
    800035a8:	ead40ce3          	beq	s0,a3,80003460 <__adddf3+0x7a>
    800035ac:	4685                	li	a3,1
    800035ae:	16de                	slli	a3,a3,0x37
    800035b0:	8f55                	or	a4,a4,a3
    800035b2:	b7f1                	j	8000357e <__adddf3+0x198>
    800035b4:	c125                	beqz	a0,80003614 <__adddf3+0x22e>
    800035b6:	e429                	bnez	s0,80003600 <__adddf3+0x21a>
    800035b8:	14078e63          	beqz	a5,80003714 <__adddf3+0x32e>
    800035bc:	01051763          	bne	a0,a6,800035ca <__adddf3+0x1e4>
    800035c0:	40f707b3          	sub	a5,a4,a5
    800035c4:	8432                	mv	s0,a2
    800035c6:	84ae                	mv	s1,a1
    800035c8:	bf79                	j	80003566 <__adddf3+0x180>
    800035ca:	7ff00513          	li	a0,2047
    800035ce:	14a60763          	beq	a2,a0,8000371c <__adddf3+0x336>
    800035d2:	fff6c693          	not	a3,a3
    800035d6:	2681                	sext.w	a3,a3
    800035d8:	03800813          	li	a6,56
    800035dc:	4505                	li	a0,1
    800035de:	00d84e63          	blt	a6,a3,800035fa <__adddf3+0x214>
    800035e2:	04000513          	li	a0,64
    800035e6:	00d7d833          	srl	a6,a5,a3
    800035ea:	40d506bb          	subw	a3,a0,a3
    800035ee:	00d797b3          	sll	a5,a5,a3
    800035f2:	00f037b3          	snez	a5,a5
    800035f6:	00f86533          	or	a0,a6,a5
    800035fa:	40a707b3          	sub	a5,a4,a0
    800035fe:	b7d9                	j	800035c4 <__adddf3+0x1de>
    80003600:	7ff00513          	li	a0,2047
    80003604:	10a60c63          	beq	a2,a0,8000371c <__adddf3+0x336>
    80003608:	4505                	li	a0,1
    8000360a:	155e                	slli	a0,a0,0x37
    8000360c:	40d006bb          	negw	a3,a3
    80003610:	8fc9                	or	a5,a5,a0
    80003612:	b7d9                	j	800035d8 <__adddf3+0x1f2>
    80003614:	00140693          	addi	a3,s0,1
    80003618:	7fe6f693          	andi	a3,a3,2046
    8000361c:	ee95                	bnez	a3,80003658 <__adddf3+0x272>
    8000361e:	e405                	bnez	s0,80003646 <__adddf3+0x260>
    80003620:	e791                	bnez	a5,8000362c <__adddf3+0x246>
    80003622:	87ba                	mv	a5,a4
    80003624:	eb75                	bnez	a4,80003718 <__adddf3+0x332>
    80003626:	4781                	li	a5,0
    80003628:	4481                	li	s1,0
    8000362a:	a045                	j	800036ca <__adddf3+0x2e4>
    8000362c:	e2070ae3          	beqz	a4,80003460 <__adddf3+0x7a>
    80003630:	40e786b3          	sub	a3,a5,a4
    80003634:	00869613          	slli	a2,a3,0x8
    80003638:	40f707b3          	sub	a5,a4,a5
    8000363c:	0c064e63          	bltz	a2,80003718 <__adddf3+0x332>
    80003640:	d2fd                	beqz	a3,80003626 <__adddf3+0x240>
    80003642:	87b6                	mv	a5,a3
    80003644:	bd31                	j	80003460 <__adddf3+0x7a>
    80003646:	ee0796e3          	bnez	a5,80003532 <__adddf3+0x14c>
    8000364a:	ee0706e3          	beqz	a4,80003536 <__adddf3+0x150>
    8000364e:	87ba                	mv	a5,a4
    80003650:	84ae                	mv	s1,a1
    80003652:	7ff00413          	li	s0,2047
    80003656:	b529                	j	80003460 <__adddf3+0x7a>
    80003658:	40e78933          	sub	s2,a5,a4
    8000365c:	00891693          	slli	a3,s2,0x8
    80003660:	0206df63          	bgez	a3,8000369e <__adddf3+0x2b8>
    80003664:	40f70933          	sub	s2,a4,a5
    80003668:	84ae                	mv	s1,a1
    8000366a:	854a                	mv	a0,s2
    8000366c:	771000ef          	jal	ra,800045dc <__clzdi2>
    80003670:	ff85079b          	addiw	a5,a0,-8
    80003674:	00f91933          	sll	s2,s2,a5
    80003678:	0287c863          	blt	a5,s0,800036a8 <__adddf3+0x2c2>
    8000367c:	4087853b          	subw	a0,a5,s0
    80003680:	2505                	addiw	a0,a0,1
    80003682:	04000413          	li	s0,64
    80003686:	00a957b3          	srl	a5,s2,a0
    8000368a:	40a4053b          	subw	a0,s0,a0
    8000368e:	00a91933          	sll	s2,s2,a0
    80003692:	01203933          	snez	s2,s2
    80003696:	0127e7b3          	or	a5,a5,s2
    8000369a:	4401                	li	s0,0
    8000369c:	b3d1                	j	80003460 <__adddf3+0x7a>
    8000369e:	fc0916e3          	bnez	s2,8000366a <__adddf3+0x284>
    800036a2:	4781                	li	a5,0
    800036a4:	4401                	li	s0,0
    800036a6:	b749                	j	80003628 <__adddf3+0x242>
    800036a8:	8c1d                	sub	s0,s0,a5
    800036aa:	57fd                	li	a5,-1
    800036ac:	17de                	slli	a5,a5,0x37
    800036ae:	17fd                	addi	a5,a5,-1
    800036b0:	00f977b3          	and	a5,s2,a5
    800036b4:	b375                	j	80003460 <__adddf3+0x7a>
    800036b6:	87ba                	mv	a5,a4
    800036b8:	8432                	mv	s0,a2
    800036ba:	b35d                	j	80003460 <__adddf3+0x7a>
    800036bc:	87ba                	mv	a5,a4
    800036be:	b34d                	j	80003460 <__adddf3+0x7a>
    800036c0:	87ba                	mv	a5,a4
    800036c2:	bf41                	j	80003652 <__adddf3+0x26c>
    800036c4:	7ff00413          	li	s0,2047
    800036c8:	4781                	li	a5,0
    800036ca:	00879713          	slli	a4,a5,0x8
    800036ce:	00075b63          	bgez	a4,800036e4 <__adddf3+0x2fe>
    800036d2:	0405                	addi	s0,s0,1
    800036d4:	7ff00713          	li	a4,2047
    800036d8:	04e40663          	beq	s0,a4,80003724 <__adddf3+0x33e>
    800036dc:	577d                	li	a4,-1
    800036de:	175e                	slli	a4,a4,0x37
    800036e0:	177d                	addi	a4,a4,-1
    800036e2:	8ff9                	and	a5,a5,a4
    800036e4:	7ff00713          	li	a4,2047
    800036e8:	838d                	srli	a5,a5,0x3
    800036ea:	00e41663          	bne	s0,a4,800036f6 <__adddf3+0x310>
    800036ee:	c781                	beqz	a5,800036f6 <__adddf3+0x310>
    800036f0:	4785                	li	a5,1
    800036f2:	17ce                	slli	a5,a5,0x33
    800036f4:	4481                	li	s1,0
    800036f6:	7ff47413          	andi	s0,s0,2047
    800036fa:	07b2                	slli	a5,a5,0xc
    800036fc:	1452                	slli	s0,s0,0x34
    800036fe:	83b1                	srli	a5,a5,0xc
    80003700:	60e2                	ld	ra,24(sp)
    80003702:	8fc1                	or	a5,a5,s0
    80003704:	6442                	ld	s0,16(sp)
    80003706:	03f49513          	slli	a0,s1,0x3f
    8000370a:	6902                	ld	s2,0(sp)
    8000370c:	64a2                	ld	s1,8(sp)
    8000370e:	8d5d                	or	a0,a0,a5
    80003710:	6105                	addi	sp,sp,32
    80003712:	8082                	ret
    80003714:	87ba                	mv	a5,a4
    80003716:	8432                	mv	s0,a2
    80003718:	84ae                	mv	s1,a1
    8000371a:	b399                	j	80003460 <__adddf3+0x7a>
    8000371c:	87ba                	mv	a5,a4
    8000371e:	7ff00413          	li	s0,2047
    80003722:	bfdd                	j	80003718 <__adddf3+0x332>
    80003724:	4781                	li	a5,0
    80003726:	bf7d                	j	800036e4 <__adddf3+0x2fe>

0000000080003728 <__divdf3>:
    80003728:	7139                	addi	sp,sp,-64
    8000372a:	03455793          	srli	a5,a0,0x34
    8000372e:	f426                	sd	s1,40(sp)
    80003730:	ec4e                	sd	s3,24(sp)
    80003732:	e852                	sd	s4,16(sp)
    80003734:	00c51993          	slli	s3,a0,0xc
    80003738:	fc06                	sd	ra,56(sp)
    8000373a:	f822                	sd	s0,48(sp)
    8000373c:	f04a                	sd	s2,32(sp)
    8000373e:	e456                	sd	s5,8(sp)
    80003740:	03579713          	slli	a4,a5,0x35
    80003744:	8a2e                	mv	s4,a1
    80003746:	00c9d993          	srli	s3,s3,0xc
    8000374a:	03f55493          	srli	s1,a0,0x3f
    8000374e:	cb35                	beqz	a4,800037c2 <__divdf3+0x9a>
    80003750:	7ff7f913          	andi	s2,a5,2047
    80003754:	7ff00793          	li	a5,2047
    80003758:	08f90463          	beq	s2,a5,800037e0 <__divdf3+0xb8>
    8000375c:	4785                	li	a5,1
    8000375e:	098e                	slli	s3,s3,0x3
    80003760:	17de                	slli	a5,a5,0x37
    80003762:	00f9e9b3          	or	s3,s3,a5
    80003766:	c0190913          	addi	s2,s2,-1023
    8000376a:	4a81                	li	s5,0
    8000376c:	034a5793          	srli	a5,s4,0x34
    80003770:	00ca1413          	slli	s0,s4,0xc
    80003774:	03579713          	slli	a4,a5,0x35
    80003778:	8031                	srli	s0,s0,0xc
    8000377a:	7ff7f693          	andi	a3,a5,2047
    8000377e:	03fa5a13          	srli	s4,s4,0x3f
    80003782:	cb2d                	beqz	a4,800037f4 <__divdf3+0xcc>
    80003784:	7ff00793          	li	a5,2047
    80003788:	08f68363          	beq	a3,a5,8000380e <__divdf3+0xe6>
    8000378c:	4785                	li	a5,1
    8000378e:	040e                	slli	s0,s0,0x3
    80003790:	17de                	slli	a5,a5,0x37
    80003792:	8c5d                	or	s0,s0,a5
    80003794:	c0168693          	addi	a3,a3,-1023
    80003798:	4781                	li	a5,0
    8000379a:	40d90933          	sub	s2,s2,a3
    8000379e:	002a9693          	slli	a3,s5,0x2
    800037a2:	8edd                	or	a3,a3,a5
    800037a4:	16fd                	addi	a3,a3,-1
    800037a6:	4739                	li	a4,14
    800037a8:	0144c533          	xor	a0,s1,s4
    800037ac:	06d76a63          	bltu	a4,a3,80003820 <__divdf3+0xf8>
    800037b0:	00003617          	auipc	a2,0x3
    800037b4:	81460613          	addi	a2,a2,-2028 # 80005fc4 <__rodata_start+0x11bc>
    800037b8:	068a                	slli	a3,a3,0x2
    800037ba:	96b2                	add	a3,a3,a2
    800037bc:	4298                	lw	a4,0(a3)
    800037be:	9732                	add	a4,a4,a2
    800037c0:	8702                	jr	a4
    800037c2:	02098663          	beqz	s3,800037ee <__divdf3+0xc6>
    800037c6:	854e                	mv	a0,s3
    800037c8:	615000ef          	jal	ra,800045dc <__clzdi2>
    800037cc:	0005069b          	sext.w	a3,a0
    800037d0:	c0d00913          	li	s2,-1011
    800037d4:	3561                	addiw	a0,a0,-8
    800037d6:	00a999b3          	sll	s3,s3,a0
    800037da:	40d90933          	sub	s2,s2,a3
    800037de:	b771                	j	8000376a <__divdf3+0x42>
    800037e0:	7ff00913          	li	s2,2047
    800037e4:	4a89                	li	s5,2
    800037e6:	f80983e3          	beqz	s3,8000376c <__divdf3+0x44>
    800037ea:	4a8d                	li	s5,3
    800037ec:	b741                	j	8000376c <__divdf3+0x44>
    800037ee:	4901                	li	s2,0
    800037f0:	4a85                	li	s5,1
    800037f2:	bfad                	j	8000376c <__divdf3+0x44>
    800037f4:	c01d                	beqz	s0,8000381a <__divdf3+0xf2>
    800037f6:	8522                	mv	a0,s0
    800037f8:	5e5000ef          	jal	ra,800045dc <__clzdi2>
    800037fc:	0005079b          	sext.w	a5,a0
    80003800:	c0d00693          	li	a3,-1011
    80003804:	3561                	addiw	a0,a0,-8
    80003806:	00a41433          	sll	s0,s0,a0
    8000380a:	8e9d                	sub	a3,a3,a5
    8000380c:	b771                	j	80003798 <__divdf3+0x70>
    8000380e:	7ff00693          	li	a3,2047
    80003812:	4789                	li	a5,2
    80003814:	d059                	beqz	s0,8000379a <__divdf3+0x72>
    80003816:	478d                	li	a5,3
    80003818:	b749                	j	8000379a <__divdf3+0x72>
    8000381a:	4681                	li	a3,0
    8000381c:	4785                	li	a5,1
    8000381e:	bfb5                	j	8000379a <__divdf3+0x72>
    80003820:	00841593          	slli	a1,s0,0x8
    80003824:	0c89fa63          	bgeu	s3,s0,800038f8 <__divdf3+0x1d0>
    80003828:	197d                	addi	s2,s2,-1
    8000382a:	4681                	li	a3,0
    8000382c:	0205d413          	srli	s0,a1,0x20
    80003830:	0289d8b3          	divu	a7,s3,s0
    80003834:	57fd                	li	a5,-1
    80003836:	9381                	srli	a5,a5,0x20
    80003838:	8fed                	and	a5,a5,a1
    8000383a:	9281                	srli	a3,a3,0x20
    8000383c:	0289f733          	remu	a4,s3,s0
    80003840:	8646                	mv	a2,a7
    80003842:	03178833          	mul	a6,a5,a7
    80003846:	1702                	slli	a4,a4,0x20
    80003848:	8f55                	or	a4,a4,a3
    8000384a:	01077c63          	bgeu	a4,a6,80003862 <__divdf3+0x13a>
    8000384e:	972e                	add	a4,a4,a1
    80003850:	fff88613          	addi	a2,a7,-1
    80003854:	00b76763          	bltu	a4,a1,80003862 <__divdf3+0x13a>
    80003858:	01077563          	bgeu	a4,a6,80003862 <__divdf3+0x13a>
    8000385c:	ffe88613          	addi	a2,a7,-2
    80003860:	972e                	add	a4,a4,a1
    80003862:	41070733          	sub	a4,a4,a6
    80003866:	02875833          	divu	a6,a4,s0
    8000386a:	02877733          	remu	a4,a4,s0
    8000386e:	030786b3          	mul	a3,a5,a6
    80003872:	02071793          	slli	a5,a4,0x20
    80003876:	8742                	mv	a4,a6
    80003878:	00d7fc63          	bgeu	a5,a3,80003890 <__divdf3+0x168>
    8000387c:	97ae                	add	a5,a5,a1
    8000387e:	fff80713          	addi	a4,a6,-1
    80003882:	00b7e763          	bltu	a5,a1,80003890 <__divdf3+0x168>
    80003886:	00d7f563          	bgeu	a5,a3,80003890 <__divdf3+0x168>
    8000388a:	ffe80713          	addi	a4,a6,-2
    8000388e:	97ae                	add	a5,a5,a1
    80003890:	02061413          	slli	s0,a2,0x20
    80003894:	8f95                	sub	a5,a5,a3
